(dp1
S'output'
p2
S"<type 'exceptions.NameError'> name 'IS_NOT_EMTPY' is not defined"
p3
sS'layer'
p4
S'E:\\web2py\\applications\\shoebox\\models\\db_content.py'
p5
sS'code'
p6
S'\ndb.define_table(\n    \'articles\',\n    Field(\'title\', requires = IS_NOT_EMPTY()),\n    Field(\'articleContent\', \'text\', requires = IS_NOT_EMPTY()),\n    Field(\'articleOwner\', \'reference auth_user\'),\n    Field(\'articleDate\', \'date\', requires = IS_NOT_EMPTY()),\n    format = \'%(title)s: %(articleContent)s: %(owner_id)s\')\n\ndb.define_table(\n    \'featuredPost\',\n    Field(\'title\', requires = IS_NOT_EMPTY()),\n    Field(\'postContent\', \'text\', requires = IS_NOT_EMTPY()),\n    Field(\'postAuthor\', \'reference auth_user\'),\n    Field(\'postDate\', \'date\', requires = IS_NOT_EMPTY()),\n    format = \'%(title)s: %(postContent)s: %(articleOwner)s\')\n\n############################################################\n\n# Populates tables with sample data\n\nif db(db.auth_user).isempty():\n    import datetime\n    from gluon.contrib.populate import populate\n    pb_id = db.auth_user.insert(first_name = "Peter", last_name = \'Bogun\',\n                                email = \'peter.bogun@example.com\',\n                                password = CRYPT() (\'test\') [0])\n\n    populate(db.auth_user, 50)\n    db(db.auth_user.id <= 25).update(is_author = True)\n'
p7
sS'snapshot'
p8
(dp9
S'exception'
p10
(dp11
S'__hash__'
p12
S"<method-wrapper '__hash__' of exceptions.NameError object>"
p13
sS'__setattr__'
p14
S"<method-wrapper '__setattr__' of exceptions.NameError object>"
p15
sS'__reduce_ex__'
p16
S'<built-in method __reduce_ex__ of exceptions.NameError object>'
p17
sS'__getslice__'
p18
S"<method-wrapper '__getslice__' of exceptions.NameError object>"
p19
sS'__getitem__'
p20
S"<method-wrapper '__getitem__' of exceptions.NameError object>"
p21
sS'__setstate__'
p22
S'<built-in method __setstate__ of exceptions.NameError object>'
p23
sS'__reduce__'
p24
S'<built-in method __reduce__ of exceptions.NameError object>'
p25
sS'__str__'
p26
S"<method-wrapper '__str__' of exceptions.NameError object>"
p27
sS'__format__'
p28
S'<built-in method __format__ of exceptions.NameError object>'
p29
sS'__getattribute__'
p30
S"<method-wrapper '__getattribute__' of exceptions.NameError object>"
p31
sS'__class__'
p32
S"<type 'exceptions.NameError'>"
p33
sS'__unicode__'
p34
S'<built-in method __unicode__ of exceptions.NameError object>'
p35
sS'__delattr__'
p36
S"<method-wrapper '__delattr__' of exceptions.NameError object>"
p37
sS'__subclasshook__'
p38
S'<built-in method __subclasshook__ of type object>'
p39
sS'__repr__'
p40
S"<method-wrapper '__repr__' of exceptions.NameError object>"
p41
sS'args'
p42
S'("name \'IS_NOT_EMTPY\' is not defined",)'
p43
sS'__dict__'
p44
S'{}'
p45
sS'__sizeof__'
p46
S'<built-in method __sizeof__ of exceptions.NameError object>'
p47
sS'__doc__'
p48
S"'Name not found globally.'"
p49
sS'__init__'
p50
S"<method-wrapper '__init__' of exceptions.NameError object>"
p51
sS'__new__'
p52
S'<built-in method __new__ of type object>'
p53
ssS'evalue'
p54
S"name 'IS_NOT_EMTPY' is not defined"
p55
sS'request'
p56
cgluon.html
XML_unpickle
p57
(S's\x82W\x00\x00<div><table><tr><td style="font-weight:bold;vertical-align:top;">ajax</td><td style="vertical-align:top;">:</td><td><div>False</div></td></tr><tr><td style="font-weight:bold;vertical-align:top;">application</td><td style="vertical-align:top;">:</td><td><div>shoebox</div></td></tr><tr><td style="font-weight:bold;vertical-align:top;">args</td><td style="vertical-align:top;">:</td><td><div><table><tr><td><div>login</div></td></tr></table></div></td></tr><tr><td style="font-weight:bold;vertical-align:top;">cid</td><td style="vertical-align:top;">:</td><td><div>None</div></td></tr><tr><td style="font-weight:bold;vertical-align:top;">client</td><td style="vertical-align:top;">:</td><td><div>127.0.0.1</div></td></tr><tr><td style="font-weight:bold;vertical-align:top;">controller</td><td style="vertical-align:top;">:</td><td><div>default</div></td></tr><tr><td style="font-weight:bold;vertical-align:top;">cookies</td><td style="vertical-align:top;">:</td><td><div><table><tr><td style="font-weight:bold;vertical-align:top;">session_id_admin</td><td style="vertical-align:top;">:</td><td><div>127.0.0.1-6e7c47ef-e18e-487d-9fa3-96da5803a1ae<table><tr><td style="font-weight:bold;vertical-align:top;">comment</td><td style="vertical-align:top;">:</td><td><div></div></td></tr><tr><td style="font-weight:bold;vertical-align:top;">domain</td><td style="vertical-align:top;">:</td><td><div></div></td></tr><tr><td style="font-weight:bold;vertical-align:top;">expires</td><td style="vertical-align:top;">:</td><td><div></div></td></tr><tr><td style="font-weight:bold;vertical-align:top;">httponly</td><td style="vertical-align:top;">:</td><td><div></div></td></tr><tr><td style="font-weight:bold;vertical-align:top;">max-age</td><td style="vertical-align:top;">:</td><td><div></div></td></tr><tr><td style="font-weight:bold;vertical-align:top;">path</td><td style="vertical-align:top;">:</td><td><div></div></td></tr><tr><td style="font-weight:bold;vertical-align:top;">secure</td><td style="vertical-align:top;">:</td><td><div></div></td></tr><tr><td style="font-weight:bold;vertical-align:top;">version</td><td style="vertical-align:top;">:</td><td><div></div></td></tr></table></div></td></tr><tr><td style="font-weight:bold;vertical-align:top;">session_id_shoebox</td><td style="vertical-align:top;">:</td><td><div>127.0.0.1-8320e6d5-b61a-48fd-8abd-0a34f0138ffd<table><tr><td style="font-weight:bold;vertical-align:top;">comment</td><td style="vertical-align:top;">:</td><td><div></div></td></tr><tr><td style="font-weight:bold;vertical-align:top;">domain</td><td style="vertical-align:top;">:</td><td><div></div></td></tr><tr><td style="font-weight:bold;vertical-align:top;">expires</td><td style="vertical-align:top;">:</td><td><div></div></td></tr><tr><td style="font-weight:bold;vertical-align:top;">httponly</td><td style="vertical-align:top;">:</td><td><div></div></td></tr><tr><td style="font-weight:bold;vertical-align:top;">max-age</td><td style="vertical-align:top;">:</td><td><div></div></td></tr><tr><td style="font-weight:bold;vertical-align:top;">path</td><td style="vertical-align:top;">:</td><td><div></div></td></tr><tr><td style="font-weight:bold;vertical-align:top;">secure</td><td style="vertical-align:top;">:</td><td><div></div></td></tr><tr><td style="font-weight:bold;vertical-align:top;">version</td><td style="vertical-align:top;">:</td><td><div></div></td></tr></table></div></td></tr></table></div></td></tr><tr><td style="font-weight:bold;vertical-align:top;">env</td><td style="vertical-align:top;">:</td><td><div><table><tr><td style="font-weight:bold;vertical-align:top;">HTTP_ACCEPT</td><td style="vertical-align:top;">:</td><td><div>text/html,application/xhtml+xml,application/xml;q=0.9,*/*;q=0.8</div></td></tr><tr><td style="font-weight:bold;vertical-align:top;">HTTP_ACCEPT_ENCODING</td><td style="vertical-align:top;">:</td><td><div>gzip, deflate</div></td></tr><tr><td style="font-weight:bold;vertical-align:top;">HTTP_ACCEPT_LANGUAGE</td><td style="vertical-align:top;">:</td><td><div>en</div></td></tr><tr><td style="font-weight:bold;vertical-align:top;">HTTP_CONNECTION</td><td style="vertical-align:top;">:</td><td><div>keep-alive</div></td></tr><tr><td style="font-weight:bold;vertical-align:top;">HTTP_COOKIE</td><td style="vertical-align:top;">:</td><td><div>session_id_admin=127.0.0.1-6e7c47ef-e18e-487d-9fa3-96da5803a1ae; session_id_shoebox=127.0.0.1-8320e6d5-b61a-48fd-8abd-0a34f0138ffd</div></td></tr><tr><td style="font-weight:bold;vertical-align:top;">HTTP_DNT</td><td style="vertical-align:top;">:</td><td><div>1</div></td></tr><tr><td style="font-weight:bold;vertical-align:top;">HTTP_HOST</td><td style="vertical-align:top;">:</td><td><div>127.0.0.1:8000</div></td></tr><tr><td style="font-weight:bold;vertical-align:top;">HTTP_REFERER</td><td style="vertical-align:top;">:</td><td><div>http://127.0.0.1:8000/shoebox/default/index</div></td></tr><tr><td style="font-weight:bold;vertical-align:top;">HTTP_USER_AGENT</td><td style="vertical-align:top;">:</td><td><div>Mozilla/5.0 (Windows NT 6.3; WOW64; rv:33.0) Gecko/20100101 Firefox/33.0</div></td></tr><tr><td style="font-weight:bold;vertical-align:top;">PATH_INFO</td><td style="vertical-align:top;">:</td><td><div>/shoebox/default/user/login</div></td></tr><tr><td style="font-weight:bold;vertical-align:top;">QUERY_STRING</td><td style="vertical-align:top;">:</td><td><div>_next=/shoebox/default/dashboard</div></td></tr><tr><td style="font-weight:bold;vertical-align:top;">REMOTE_ADDR</td><td style="vertical-align:top;">:</td><td><div>127.0.0.1</div></td></tr><tr><td style="font-weight:bold;vertical-align:top;">REMOTE_PORT</td><td style="vertical-align:top;">:</td><td><div>52412</div></td></tr><tr><td style="font-weight:bold;vertical-align:top;">REQUEST_METHOD</td><td style="vertical-align:top;">:</td><td><div>GET</div></td></tr><tr><td style="font-weight:bold;vertical-align:top;">SCRIPT_NAME</td><td style="vertical-align:top;">:</td><td><div></div></td></tr><tr><td style="font-weight:bold;vertical-align:top;">SERVER_NAME</td><td style="vertical-align:top;">:</td><td><div>Piotr-PC</div></td></tr><tr><td style="font-weight:bold;vertical-align:top;">SERVER_PORT</td><td style="vertical-align:top;">:</td><td><div>8000</div></td></tr><tr><td style="font-weight:bold;vertical-align:top;">SERVER_PROTOCOL</td><td style="vertical-align:top;">:</td><td><div>HTTP/1.1</div></td></tr><tr><td style="font-weight:bold;vertical-align:top;">SERVER_SOFTWARE</td><td style="vertical-align:top;">:</td><td><div>Rocket 1.2.6</div></td></tr><tr><td style="font-weight:bold;vertical-align:top;">app_folders</td><td style="vertical-align:top;">:</td><td><div>set([&#x27;E:\\\\web2py\\\\applications\\\\shoebox\\\\&#x27;, &#x27;E:\\\\web2py\\\\applications\\\\admin\\\\&#x27;])</div></td></tr><tr><td style="font-weight:bold;vertical-align:top;">applications_parent</td><td style="vertical-align:top;">:</td><td><div>E:\\web2py</div></td></tr><tr><td style="font-weight:bold;vertical-align:top;">cmd_args</td><td style="vertical-align:top;">:</td><td><div><table></table></div></td></tr><tr><td style="font-weight:bold;vertical-align:top;">cmd_options</td><td style="vertical-align:top;">:</td><td><div>&lt;Values at 0x2966670: {&#x27;verbose&#x27;: False, &#x27;ip&#x27;: &#x27;127.0.0.1&#x27;, &#x27;debuglevel&#x27;: 30, &#x27;with_scheduler&#x27;: False, &#x27;ips&#x27;: [], &#x27;shutdown_timeout&#x27;: 5, &#x27;taskbar&#x27;: False, &#x27;with_coverage&#x27;: False, &#x27;scheduler_groups&#x27;: None, &#x27;port&#x27;: 8000, &#x27;maxthreads&#x27;: None, &#x27;softcron&#x27;: False, &#x27;server_name&#x27;: &#x27;Piotr-PC&#x27;, &#x27;bpython&#x27;: False, &#x27;nogui&#x27;: False, &#x27;pid_filename&#x27;: &#x27;httpserver.pid&#x27;, &#x27;extcron&#x27;: False, &#x27;runcron&#x27;: False, &#x27;run_system_tests&#x27;: False, &#x27;test&#x27;: None, &#x27;folder&#x27;: &#x27;E:\\\\web2py&#x27;, &#x27;config&#x27;: &#x27;&#x27;, &#x27;minthreads&#x27;: None, &#x27;shell&#x27;: None, &#x27;run&#x27;: &#x27;&#x27;, &#x27;log_filename&#x27;: &#x27;httpserver.log&#x27;, &#x27;profiler_dir&#x27;: None, &#x27;args&#x27;: [&#x27;&#x27;], &#x27;socket_timeout&#x27;: 5, &#x27;ssl_ca_certificate&#x27;: None, &#x27;scheduler&#x27;: None, &#x27;interfaces&#x27;: None, &#x27;ssl_private_key&#x27;: &#x27;&#x27;, &#x27;gae&#x27;: None, &#x27;password&#x27;: &#x27;&lt;ask&gt;&#x27;, &#x27;request_queue_size&#x27;: 5, &#x27;ssl_certificate&#x27;: &#x27;&#x27;, &#x27;cronjob&#x27;: False, &#x27;numthreads&#x27;: None, &#x27;quiet&#x27;: False, &#x27;import_models&#x27;: False, &#x27;timeout&#x27;: 10, &#x27;plain&#x27;: False, &#x27;nobanner&#x27;: False}&gt;</div></td></tr><tr><td style="font-weight:bold;vertical-align:top;">db_sessions</td><td style="vertical-align:top;">:</td><td><div>set([])</div></td></tr><tr><td style="font-weight:bold;vertical-align:top;">debugging</td><td style="vertical-align:top;">:</td><td><div>False</div></td></tr><tr><td style="font-weight:bold;vertical-align:top;">gluon_parent</td><td style="vertical-align:top;">:</td><td><div>E:\\web2py</div></td></tr><tr><td style="font-weight:bold;vertical-align:top;">http_accept</td><td style="vertical-align:top;">:</td><td><div>text/html,application/xhtml+xml,application/xml;q=0.9,*/*;q=0.8</div></td></tr><tr><td style="font-weight:bold;vertical-align:top;">http_accept_encoding</td><td style="vertical-align:top;">:</td><td><div>gzip, deflate</div></td></tr><tr><td style="font-weight:bold;vertical-align:top;">http_accept_language</td><td style="vertical-align:top;">:</td><td><div>en</div></td></tr><tr><td style="font-weight:bold;vertical-align:top;">http_connection</td><td style="vertical-align:top;">:</td><td><div>keep-alive</div></td></tr><tr><td style="font-weight:bold;vertical-align:top;">http_cookie</td><td style="vertical-align:top;">:</td><td><div>session_id_admin=127.0.0.1-6e7c47ef-e18e-487d-9fa3-96da5803a1ae; session_id_shoebox=127.0.0.1-8320e6d5-b61a-48fd-8abd-0a34f0138ffd</div></td></tr><tr><td style="font-weight:bold;vertical-align:top;">http_dnt</td><td style="vertical-align:top;">:</td><td><div>1</div></td></tr><tr><td style="font-weight:bold;vertical-align:top;">http_host</td><td style="vertical-align:top;">:</td><td><div>127.0.0.1:8000</div></td></tr><tr><td style="font-weight:bold;vertical-align:top;">http_referer</td><td style="vertical-align:top;">:</td><td><div>http://127.0.0.1:8000/shoebox/default/index</div></td></tr><tr><td style="font-weight:bold;vertical-align:top;">http_user_agent</td><td style="vertical-align:top;">:</td><td><div>Mozilla/5.0 (Windows NT 6.3; WOW64; rv:33.0) Gecko/20100101 Firefox/33.0</div></td></tr><tr><td style="font-weight:bold;vertical-align:top;">is_jython</td><td style="vertical-align:top;">:</td><td><div>False</div></td></tr><tr><td style="font-weight:bold;vertical-align:top;">is_pypy</td><td style="vertical-align:top;">:</td><td><div>False</div></td></tr><tr><td style="font-weight:bold;vertical-align:top;">is_source</td><td style="vertical-align:top;">:</td><td><div>False</div></td></tr><tr><td style="font-weight:bold;vertical-align:top;">local_hosts</td><td style="vertical-align:top;">:</td><td><div><table><tr><td><div>Piotr-PC</div></td></tr><tr><td><div>192.168.1.145</div></td></tr><tr><td><div>::ffff:127.0.0.1</div></td></tr><tr><td><div>::1</div></td></tr><tr><td><div>Piotr-PC.hsd1.il.comcast.net.</div></td></tr><tr><td><div>fe80::c1e6:a3a6:1ad4:a5ce%5</div></td></tr><tr><td><div>fe80::461:3783:b810:9179%8</div></td></tr><tr><td><div>2001:0:9d38:6abd:461:3783:b810:9179</div></td></tr><tr><td><div>127.0.0.1</div></td></tr></table></div></td></tr><tr><td style="font-weight:bold;vertical-align:top;">path_info</td><td style="vertical-align:top;">:</td><td><div>/shoebox/default/user/login</div></td></tr><tr><td style="font-weight:bold;vertical-align:top;">query_string</td><td style="vertical-align:top;">:</td><td><div>_next=/shoebox/default/dashboard</div></td></tr><tr><td style="font-weight:bold;vertical-align:top;">remote_addr</td><td style="vertical-align:top;">:</td><td><div>127.0.0.1</div></td></tr><tr><td style="font-weight:bold;vertical-align:top;">remote_port</td><td style="vertical-align:top;">:</td><td><div>52412</div></td></tr><tr><td style="font-weight:bold;vertical-align:top;">request_method</td><td style="vertical-align:top;">:</td><td><div>GET</div></td></tr><tr><td style="font-weight:bold;vertical-align:top;">request_uri</td><td style="vertical-align:top;">:</td><td><div>/shoebox/default/user/login?_next=/shoebox/default/dashboard</div></td></tr><tr><td style="font-weight:bold;vertical-align:top;">script_name</td><td style="vertical-align:top;">:</td><td><div></div></td></tr><tr><td style="font-weight:bold;vertical-align:top;">server_name</td><td style="vertical-align:top;">:</td><td><div>Piotr-PC</div></td></tr><tr><td style="font-weight:bold;vertical-align:top;">server_port</td><td style="vertical-align:top;">:</td><td><div>8000</div></td></tr><tr><td style="font-weight:bold;vertical-align:top;">server_protocol</td><td style="vertical-align:top;">:</td><td><div>HTTP/1.1</div></td></tr><tr><td style="font-weight:bold;vertical-align:top;">server_software</td><td style="vertical-align:top;">:</td><td><div>Rocket 1.2.6</div></td></tr><tr><td style="font-weight:bold;vertical-align:top;">web2py_path</td><td style="vertical-align:top;">:</td><td><div>E:\\web2py</div></td></tr><tr><td style="font-weight:bold;vertical-align:top;">web2py_version</td><td style="vertical-align:top;">:</td><td><div>2.9.11-stable+timestamp.2014.09.15.23.35.11</div></td></tr><tr><td style="font-weight:bold;vertical-align:top;">wsgi.errors</td><td style="vertical-align:top;">:</td><td><div>&lt;open file &#x27;&lt;stderr&gt;&#x27;, mode &#x27;w&#x27; at 0x004C60D0&gt;</div></td></tr><tr><td style="font-weight:bold;vertical-align:top;">wsgi.file_wrapper</td><td style="vertical-align:top;">:</td><td><div>&lt;class wsgiref.util.FileWrapper at 0x01E51960&gt;</div></td></tr><tr><td style="font-weight:bold;vertical-align:top;">wsgi.input</td><td style="vertical-align:top;">:</td><td><div>&lt;socket._fileobject object at 0x086330F0&gt;</div></td></tr><tr><td style="font-weight:bold;vertical-align:top;">wsgi.multiprocess</td><td style="vertical-align:top;">:</td><td><div>False</div></td></tr><tr><td style="font-weight:bold;vertical-align:top;">wsgi.multithread</td><td style="vertical-align:top;">:</td><td><div>True</div></td></tr><tr><td style="font-weight:bold;vertical-align:top;">wsgi.run_once</td><td style="vertical-align:top;">:</td><td><div>False</div></td></tr><tr><td style="font-weight:bold;vertical-align:top;">wsgi.url_scheme</td><td style="vertical-align:top;">:</td><td><div>http</div></td></tr><tr><td style="font-weight:bold;vertical-align:top;">wsgi.version</td><td style="vertical-align:top;">:</td><td><div><table><tr><td><div>1</div></td></tr><tr><td><div>0</div></td></tr></table></div></td></tr><tr><td style="font-weight:bold;vertical-align:top;">wsgi_errors</td><td style="vertical-align:top;">:</td><td><div>&lt;open file &#x27;&lt;stderr&gt;&#x27;, mode &#x27;w&#x27; at 0x004C60D0&gt;</div></td></tr><tr><td style="font-weight:bold;vertical-align:top;">wsgi_file_wrapper</td><td style="vertical-align:top;">:</td><td><div>&lt;class wsgiref.util.FileWrapper at 0x01E51960&gt;</div></td></tr><tr><td style="font-weight:bold;vertical-align:top;">wsgi_input</td><td style="vertical-align:top;">:</td><td><div>&lt;socket._fileobject object at 0x086330F0&gt;</div></td></tr><tr><td style="font-weight:bold;vertical-align:top;">wsgi_multiprocess</td><td style="vertical-align:top;">:</td><td><div>False</div></td></tr><tr><td style="font-weight:bold;vertical-align:top;">wsgi_multithread</td><td style="vertical-align:top;">:</td><td><div>True</div></td></tr><tr><td style="font-weight:bold;vertical-align:top;">wsgi_run_once</td><td style="vertical-align:top;">:</td><td><div>False</div></td></tr><tr><td style="font-weight:bold;vertical-align:top;">wsgi_url_scheme</td><td style="vertical-align:top;">:</td><td><div>http</div></td></tr><tr><td style="font-weight:bold;vertical-align:top;">wsgi_version</td><td style="vertical-align:top;">:</td><td><div><table><tr><td><div>1</div></td></tr><tr><td><div>0</div></td></tr></table></div></td></tr></table></div></td></tr><tr><td style="font-weight:bold;vertical-align:top;">extension</td><td style="vertical-align:top;">:</td><td><div>html</div></td></tr><tr><td style="font-weight:bold;vertical-align:top;">folder</td><td style="vertical-align:top;">:</td><td><div>E:\\web2py\\applications\\shoebox\\</div></td></tr><tr><td style="font-weight:bold;vertical-align:top;">function</td><td style="vertical-align:top;">:</td><td><div>user</div></td></tr><tr><td style="font-weight:bold;vertical-align:top;">global_settings</td><td style="vertical-align:top;">:</td><td><div><table><tr><td style="font-weight:bold;vertical-align:top;">app_folders</td><td style="vertical-align:top;">:</td><td><div>set([&#x27;E:\\\\web2py\\\\applications\\\\shoebox\\\\&#x27;, &#x27;E:\\\\web2py\\\\applications\\\\admin\\\\&#x27;])</div></td></tr><tr><td style="font-weight:bold;vertical-align:top;">applications_parent</td><td style="vertical-align:top;">:</td><td><div>E:\\web2py</div></td></tr><tr><td style="font-weight:bold;vertical-align:top;">cmd_args</td><td style="vertical-align:top;">:</td><td><div><table></table></div></td></tr><tr><td style="font-weight:bold;vertical-align:top;">cmd_options</td><td style="vertical-align:top;">:</td><td><div>&lt;Values at 0x2966670: {&#x27;verbose&#x27;: False, &#x27;ip&#x27;: &#x27;127.0.0.1&#x27;, &#x27;debuglevel&#x27;: 30, &#x27;with_scheduler&#x27;: False, &#x27;ips&#x27;: [], &#x27;shutdown_timeout&#x27;: 5, &#x27;taskbar&#x27;: False, &#x27;with_coverage&#x27;: False, &#x27;scheduler_groups&#x27;: None, &#x27;port&#x27;: 8000, &#x27;maxthreads&#x27;: None, &#x27;softcron&#x27;: False, &#x27;server_name&#x27;: &#x27;Piotr-PC&#x27;, &#x27;bpython&#x27;: False, &#x27;nogui&#x27;: False, &#x27;pid_filename&#x27;: &#x27;httpserver.pid&#x27;, &#x27;extcron&#x27;: False, &#x27;runcron&#x27;: False, &#x27;run_system_tests&#x27;: False, &#x27;test&#x27;: None, &#x27;folder&#x27;: &#x27;E:\\\\web2py&#x27;, &#x27;config&#x27;: &#x27;&#x27;, &#x27;minthreads&#x27;: None, &#x27;shell&#x27;: None, &#x27;run&#x27;: &#x27;&#x27;, &#x27;log_filename&#x27;: &#x27;httpserver.log&#x27;, &#x27;profiler_dir&#x27;: None, &#x27;args&#x27;: [&#x27;&#x27;], &#x27;socket_timeout&#x27;: 5, &#x27;ssl_ca_certificate&#x27;: None, &#x27;scheduler&#x27;: None, &#x27;interfaces&#x27;: None, &#x27;ssl_private_key&#x27;: &#x27;&#x27;, &#x27;gae&#x27;: None, &#x27;password&#x27;: &#x27;&lt;ask&gt;&#x27;, &#x27;request_queue_size&#x27;: 5, &#x27;ssl_certificate&#x27;: &#x27;&#x27;, &#x27;cronjob&#x27;: False, &#x27;numthreads&#x27;: None, &#x27;quiet&#x27;: False, &#x27;import_models&#x27;: False, &#x27;timeout&#x27;: 10, &#x27;plain&#x27;: False, &#x27;nobanner&#x27;: False}&gt;</div></td></tr><tr><td style="font-weight:bold;vertical-align:top;">db_sessions</td><td style="vertical-align:top;">:</td><td><div>set([])</div></td></tr><tr><td style="font-weight:bold;vertical-align:top;">debugging</td><td style="vertical-align:top;">:</td><td><div>False</div></td></tr><tr><td style="font-weight:bold;vertical-align:top;">gluon_parent</td><td style="vertical-align:top;">:</td><td><div>E:\\web2py</div></td></tr><tr><td style="font-weight:bold;vertical-align:top;">is_jython</td><td style="vertical-align:top;">:</td><td><div>False</div></td></tr><tr><td style="font-weight:bold;vertical-align:top;">is_pypy</td><td style="vertical-align:top;">:</td><td><div>False</div></td></tr><tr><td style="font-weight:bold;vertical-align:top;">is_source</td><td style="vertical-align:top;">:</td><td><div>False</div></td></tr><tr><td style="font-weight:bold;vertical-align:top;">local_hosts</td><td style="vertical-align:top;">:</td><td><div><table><tr><td><div>Piotr-PC</div></td></tr><tr><td><div>192.168.1.145</div></td></tr><tr><td><div>::ffff:127.0.0.1</div></td></tr><tr><td><div>::1</div></td></tr><tr><td><div>Piotr-PC.hsd1.il.comcast.net.</div></td></tr><tr><td><div>fe80::c1e6:a3a6:1ad4:a5ce%5</div></td></tr><tr><td><div>fe80::461:3783:b810:9179%8</div></td></tr><tr><td><div>2001:0:9d38:6abd:461:3783:b810:9179</div></td></tr><tr><td><div>127.0.0.1</div></td></tr></table></div></td></tr><tr><td style="font-weight:bold;vertical-align:top;">web2py_version</td><td style="vertical-align:top;">:</td><td><div>2.9.11-stable+timestamp.2014.09.15.23.35.11</div></td></tr></table></div></td></tr><tr><td style="font-weight:bold;vertical-align:top;">is_https</td><td style="vertical-align:top;">:</td><td><div>False</div></td></tr><tr><td style="font-weight:bold;vertical-align:top;">is_local</td><td style="vertical-align:top;">:</td><td><div>True</div></td></tr><tr><td style="font-weight:bold;vertical-align:top;">is_restful</td><td style="vertical-align:top;">:</td><td><div>False</div></td></tr><tr><td style="font-weight:bold;vertical-align:top;">is_sheduler</td><td style="vertical-align:top;">:</td><td><div>None</div></td></tr><tr><td style="font-weight:bold;vertical-align:top;">is_shell</td><td style="vertical-align:top;">:</td><td><div>None</div></td></tr><tr><td style="font-weight:bold;vertical-align:top;">now</td><td style="vertical-align:top;">:</td><td><div>datetime.datetime(2014, 11, 21, 15, 56, 32, 163000)</div></td></tr><tr><td style="font-weight:bold;vertical-align:top;">raw_args</td><td style="vertical-align:top;">:</td><td><div>login</div></td></tr><tr><td style="font-weight:bold;vertical-align:top;">raw_extension</td><td style="vertical-align:top;">:</td><td><div>None</div></td></tr><tr><td style="font-weight:bold;vertical-align:top;">url</td><td style="vertical-align:top;">:</td><td><div>/shoebox/default/user/login</div></td></tr><tr><td style="font-weight:bold;vertical-align:top;">utcnow</td><td style="vertical-align:top;">:</td><td><div>datetime.datetime(2014, 11, 21, 21, 56, 32, 163000)</div></td></tr><tr><td style="font-weight:bold;vertical-align:top;">uuid</td><td style="vertical-align:top;">:</td><td><div>shoebox/127.0.0.1.2014-11-21.15-56-32.3e18e836-c9ef-4cc8-bdfb-5808799f80bc</div></td></tr><tr><td style="font-weight:bold;vertical-align:top;">wsgi</td><td style="vertical-align:top;">:</td><td><div>&lt;gluon.main.LazyWSGI object at 0x087788B0&gt;</div></td></tr></table></div>'
tRp58
sS'frames'
p59
(lp60
(dp61
S'file'
p62
S'E:\\web2py\\gluon\\restricted.py'
p63
sS'dump'
p64
(dp65
sS'lnum'
p66
I224
sS'lines'
p67
(dp68
sS'call'
p69
S'(code="\\ndb.define_table(\\n    \'articles\',\\n    Field(\'tit...(db.auth_user.id <= 25).update(is_author = True)\\n", environment={\'A\': <class \'gluon.html.A\'>, \'ANY_OF\': <class \'gluon.validators.ANY_OF\'>, \'ASSIGNJS\': <function ASSIGNJS>, \'Auth\': <class \'gluon.tools.Auth\'>, \'B\': <class \'gluon.html.B\'>, \'BEAUTIFY\': <class \'gluon.html.BEAUTIFY\'>, \'BODY\': <class \'gluon.html.BODY\'>, \'BR\': <class \'gluon.html.BR\'>, \'BUTTON\': <class \'gluon.html.BUTTON\'>, \'CAT\': <class \'gluon.html.CAT\'>, ...}, layer=r\'E:\\web2py\\applications\\shoebox\\models\\db_content.py\')'
p70
sS'func'
p71
S'restricted'
p72
sa(dp73
g62
S'E:\\web2py\\applications\\shoebox\\models\\db_content.py'
p74
sg64
(dp75
S'IS_NOT_EMTPY'
p76
S'undefined'
p77
sS'Field'
p78
S"<class 'gluon.dal.Field'>"
p79
sS'requires'
p80
g77
ssg66
I13
sg67
(dp81
I8
S"    format = '%(title)s: %(articleContent)s: %(owner_id)s')"
p82
sI9
S''
sI10
S'db.define_table('
p83
sI11
S"    'featuredPost',"
p84
sI12
S"    Field('title', requires = IS_NOT_EMPTY()),"
p85
sI13
S"    Field('postContent', 'text', requires = IS_NOT_EMTPY()),"
p86
sI14
S"    Field('postAuthor', 'reference auth_user'),"
p87
sI15
S"    Field('postDate', 'date', requires = IS_NOT_EMPTY()),"
p88
sI16
S"    format = '%(title)s: %(postContent)s: %(articleOwner)s')"
p89
sI17
S''
ssg69
S'()'
p90
sg71
S'<module>'
p91
sasS'pyver'
p92
S'Python 2.7.6: E:\\web2py\\web2py.exe (prefix: C:\\Python27)'
p93
sS'session'
p94
g57
(S's\x98\x00\x00\x00<div><table><tr><td style="font-weight:bold;vertical-align:top;">flash</td><td style="vertical-align:top;">:</td><td><div></div></td></tr></table></div>'
tRp95
sS'etype'
p96
S"<type 'exceptions.NameError'>"
p97
sS'date'
p98
S'Fri Nov 21 15:56:32 2014'
p99
sS'response'
p100
g57
(S's\xd7\x17\x00\x00<div><table><tr><td style="font-weight:bold;vertical-align:top;">body</td><td style="vertical-align:top;">:</td><td><div>&lt;cStringIO.StringO object at 0x0854B580&gt;</div></td></tr><tr><td style="font-weight:bold;vertical-align:top;">cookies</td><td style="vertical-align:top;">:</td><td><div><table><tr><td style="font-weight:bold;vertical-align:top;">session_id_shoebox</td><td style="vertical-align:top;">:</td><td><div>127.0.0.1-8320e6d5-b61a-48fd-8abd-0a34f0138ffd<table><tr><td style="font-weight:bold;vertical-align:top;">comment</td><td style="vertical-align:top;">:</td><td><div></div></td></tr><tr><td style="font-weight:bold;vertical-align:top;">domain</td><td style="vertical-align:top;">:</td><td><div></div></td></tr><tr><td style="font-weight:bold;vertical-align:top;">expires</td><td style="vertical-align:top;">:</td><td><div></div></td></tr><tr><td style="font-weight:bold;vertical-align:top;">httponly</td><td style="vertical-align:top;">:</td><td><div></div></td></tr><tr><td style="font-weight:bold;vertical-align:top;">max-age</td><td style="vertical-align:top;">:</td><td><div></div></td></tr><tr><td style="font-weight:bold;vertical-align:top;">path</td><td style="vertical-align:top;">:</td><td><div>/</div></td></tr><tr><td style="font-weight:bold;vertical-align:top;">secure</td><td style="vertical-align:top;">:</td><td><div></div></td></tr><tr><td style="font-weight:bold;vertical-align:top;">version</td><td style="vertical-align:top;">:</td><td><div></div></td></tr></table></div></td></tr></table></div></td></tr><tr><td style="font-weight:bold;vertical-align:top;">delimiters</td><td style="vertical-align:top;">:</td><td><div><table><tr><td><div>{{</div></td></tr><tr><td><div>}}</div></td></tr></table></div></td></tr><tr><td style="font-weight:bold;vertical-align:top;">files</td><td style="vertical-align:top;">:</td><td><div><table></table></div></td></tr><tr><td style="font-weight:bold;vertical-align:top;">flash</td><td style="vertical-align:top;">:</td><td><div></div></td></tr><tr><td style="font-weight:bold;vertical-align:top;">form_label_separator</td><td style="vertical-align:top;">:</td><td><div>: </div></td></tr><tr><td style="font-weight:bold;vertical-align:top;">formstyle</td><td style="vertical-align:top;">:</td><td><div>table3cols</div></td></tr><tr><td style="font-weight:bold;vertical-align:top;">generic_patterns</td><td style="vertical-align:top;">:</td><td><div><table><tr><td><div>*</div></td></tr></table></div></td></tr><tr><td style="font-weight:bold;vertical-align:top;">headers</td><td style="vertical-align:top;">:</td><td><div><table><tr><td style="font-weight:bold;vertical-align:top;">X-Powered-By</td><td style="vertical-align:top;">:</td><td><div>web2py</div></td></tr></table></div></td></tr><tr><td style="font-weight:bold;vertical-align:top;">menu</td><td style="vertical-align:top;">:</td><td><div><table></table></div></td></tr><tr><td style="font-weight:bold;vertical-align:top;">meta</td><td style="vertical-align:top;">:</td><td><div><table></table></div></td></tr><tr><td style="font-weight:bold;vertical-align:top;">models_to_run</td><td style="vertical-align:top;">:</td><td><div><table><tr><td><div>^\\w+\\.py$</div></td></tr><tr><td><div>^default/\\w+\\.py$</div></td></tr><tr><td><div>^default/user/\\w+\\.py$</div></td></tr></table></div></td></tr><tr><td style="font-weight:bold;vertical-align:top;">postprocessing</td><td style="vertical-align:top;">:</td><td><div><table></table></div></td></tr><tr><td style="font-weight:bold;vertical-align:top;">session_client</td><td style="vertical-align:top;">:</td><td><div>127.0.0.1</div></td></tr><tr><td style="font-weight:bold;vertical-align:top;">session_cookie_compression_level</td><td style="vertical-align:top;">:</td><td><div>None</div></td></tr><tr><td style="font-weight:bold;vertical-align:top;">session_cookie_expires</td><td style="vertical-align:top;">:</td><td><div>None</div></td></tr><tr><td style="font-weight:bold;vertical-align:top;">session_cookie_key</td><td style="vertical-align:top;">:</td><td><div>None</div></td></tr><tr><td style="font-weight:bold;vertical-align:top;">session_data_name</td><td style="vertical-align:top;">:</td><td><div>session_data_shoebox</div></td></tr><tr><td style="font-weight:bold;vertical-align:top;">session_file</td><td style="vertical-align:top;">:</td><td><div>&lt;open file &#x27;E:\\\\web2py\\\\applications\\\\shoebox\\\\sessions\\\\0c6\\\\1ed\\\\127.0.0.1-8320e6d5-b61a-48fd-8abd-0a34f0138ffd&#x27;, mode &#x27;rb+&#x27; at 0x07D88758&gt;</div></td></tr><tr><td style="font-weight:bold;vertical-align:top;">session_filename</td><td style="vertical-align:top;">:</td><td><div>E:\\web2py\\applications\\shoebox\\sessions\\127.0.0.1-8320e6d5-b61a-48fd-8abd-0a34f0138ffd</div></td></tr><tr><td style="font-weight:bold;vertical-align:top;">session_hash</td><td style="vertical-align:top;">:</td><td><div>f38b15c0a90b6719a55ad80b8d1e335c</div></td></tr><tr><td style="font-weight:bold;vertical-align:top;">session_id</td><td style="vertical-align:top;">:</td><td><div>127.0.0.1-8320e6d5-b61a-48fd-8abd-0a34f0138ffd</div></td></tr><tr><td style="font-weight:bold;vertical-align:top;">session_id_name</td><td style="vertical-align:top;">:</td><td><div>session_id_shoebox</div></td></tr><tr><td style="font-weight:bold;vertical-align:top;">session_locked</td><td style="vertical-align:top;">:</td><td><div>True</div></td></tr><tr><td style="font-weight:bold;vertical-align:top;">session_masterapp</td><td style="vertical-align:top;">:</td><td><div>shoebox</div></td></tr><tr><td style="font-weight:bold;vertical-align:top;">session_new</td><td style="vertical-align:top;">:</td><td><div>False</div></td></tr><tr><td style="font-weight:bold;vertical-align:top;">session_storage_type</td><td style="vertical-align:top;">:</td><td><div>file</div></td></tr><tr><td style="font-weight:bold;vertical-align:top;">status</td><td style="vertical-align:top;">:</td><td><div>200</div></td></tr><tr><td style="font-weight:bold;vertical-align:top;">view</td><td style="vertical-align:top;">:</td><td><div>default/user.html</div></td></tr></table></div>'
tRp101
sS'locals'
p102
(dp103
S'Service'
p104
S"<class 'gluon.tools.Service'>"
p105
sS'OBJECT'
p106
S"<class 'gluon.html.OBJECT'>"
p107
sS'SQLDB'
p108
S"<class 'gluon.dal.DAL'>"
p109
sg94
S"<Storage {'_auth_next': '/shoebox/default/dashbo...orage {'version': '33.0', 'name': 'Firefox'}>}>}>"
p110
sS'LINK'
p111
S"<class 'gluon.html.LINK'>"
p112
sS'BR'
p113
S"<class 'gluon.html.BR'>"
p114
sS'local_import'
p115
S'<function <lambda>>'
p116
sS'OPTGROUP'
p117
S"<class 'gluon.html.OPTGROUP'>"
p118
sS'__package__'
p119
S'None'
p120
sS'PRE'
p121
S"<class 'gluon.html.PRE'>"
p122
sS'IS_INT_IN_RANGE'
p123
S"<class 'gluon.validators.IS_INT_IN_RANGE'>"
p124
sS'IS_LOWER'
p125
S"<class 'gluon.validators.IS_LOWER'>"
p126
sS'IS_STRONG'
p127
S"<class 'gluon.validators.IS_STRONG'>"
p128
sS'cache'
p129
S'<gluon.cache.Cache object>'
p130
sS'IS_IN_DB'
p131
S"<class 'gluon.validators.IS_IN_DB'>"
p132
sS'TAG'
p133
S'<gluon.html.__TAG__ object>'
p134
sS'SQLField'
p135
S"<class 'gluon.dal.Field'>"
p136
sS'mail'
p137
S'<gluon.tools.Mail object>'
p138
sS'BODY'
p139
S"<class 'gluon.html.BODY'>"
p140
sS'IS_DATE_IN_RANGE'
p141
S"<class 'gluon.validators.IS_DATE_IN_RANGE'>"
p142
sS'TH'
p143
S"<class 'gluon.html.TH'>"
p144
sS'URL'
p145
S'<function URL>'
p146
sS'__file__'
p147
S"r'E:\\web2py\\applications\\shoebox\\models\\db_content.py'"
p148
sS'db'
p149
S'<DAL uri="sqlite://storage.sqlite">'
p150
sS'auth'
p151
S'<gluon.tools.Auth object>'
p152
sS'P'
S"<class 'gluon.html.P'>"
p153
sS'TFOOT'
p154
S"<class 'gluon.html.TFOOT'>"
p155
sS'XHTML'
p156
S"<class 'gluon.html.XHTML'>"
p157
sS'ON'
p158
S'True'
p159
sS'OL'
p160
S"<class 'gluon.html.OL'>"
p161
sS'TEXTAREA'
p162
S"<class 'gluon.html.TEXTAREA'>"
p163
sS'MENU'
p164
S"<class 'gluon.html.MENU'>"
p165
sS'LOAD'
p166
S'<function LOAD>'
p167
sS'CODE'
p168
S"<class 'gluon.html.CODE'>"
p169
sS'HTTP'
p170
S"<class 'gluon.http.HTTP'>"
p171
sS'HR'
p172
S"<class 'gluon.html.HR'>"
p173
sS'IS_DATETIME'
p174
S"<class 'gluon.validators.IS_DATETIME'>"
p175
sS'HEAD'
p176
S"<class 'gluon.html.HEAD'>"
p177
sS'LABEL'
p178
S"<class 'gluon.html.LABEL'>"
p179
sS'CLEANUP'
p180
S"<class 'gluon.validators.CLEANUP'>"
p181
sS'plugins'
p182
S'<gluon.tools.PluginManager object>'
p183
sS'SELECT'
p184
S"<class 'gluon.html.SELECT'>"
p185
sS'use_janrain'
p186
S'<function use_janrain>'
p187
sS'CENTER'
p188
S"<class 'gluon.html.CENTER'>"
p189
sS'Auth'
p190
S"<class 'gluon.tools.Auth'>"
p191
sS'__builtins__'
p192
S"{'ArithmeticError': <type 'exceptions.ArithmeticError'>, 'AssertionError': <type 'exceptions.AssertionError'>, 'AttributeError': <type 'exceptions.AttributeError'>, 'BaseException': <type 'exceptions.BaseException'>, 'BufferError': <type 'exceptions.BufferError'>, 'BytesWarning': <type 'exceptions.BytesWarning'>, 'DeprecationWarning': <type 'exceptions.DeprecationWarning'>, 'EOFError': <type 'exceptions.EOFError'>, 'Ellipsis': Ellipsis, 'EnvironmentError': <type 'exceptions.EnvironmentError'>, ...}"
p193
sS'HTML'
p194
S"<class 'gluon.html.HTML'>"
p195
sS'SQLFORM'
p196
S"<class 'gluon.sqlhtml.SQLFORM'>"
p197
sS'EM'
p198
S"<class 'gluon.html.EM'>"
p199
sS'redirect'
p200
S'<function redirect>'
p201
sS'FIELDSET'
p202
S"<class 'gluon.html.FIELDSET'>"
p203
sS'IS_EQUAL_TO'
p204
S"<class 'gluon.validators.IS_EQUAL_TO'>"
p205
sS'embed64'
p206
S'<function embed64>'
p207
sS'IS_LIST_OF'
p208
S"<class 'gluon.validators.IS_LIST_OF'>"
p209
sS'DEBUG'
p210
g159
sS'__name__'
p211
S"'__restricted__'"
p212
sS'EMBED'
p213
S"<class 'gluon.html.EMBED'>"
p214
sS'FORM'
p215
S"<class 'gluon.html.FORM'>"
p216
sS'H2'
p217
S"<class 'gluon.html.H2'>"
p218
sS'H3'
p219
S"<class 'gluon.html.H3'>"
p220
sS'BUTTON'
p221
S"<class 'gluon.html.BUTTON'>"
p222
sS'H1'
p223
S"<class 'gluon.html.H1'>"
p224
sS'H6'
p225
S"<class 'gluon.html.H6'>"
p226
sS'H4'
p227
S"<class 'gluon.html.H4'>"
p228
sS'H5'
p229
S"<class 'gluon.html.H5'>"
p230
sS'UL'
p231
S"<class 'gluon.html.UL'>"
p232
sS'IS_UPPER'
p233
S"<class 'gluon.validators.IS_UPPER'>"
p234
sS'xmlescape'
p235
S'<function xmlescape>'
p236
sS'IS_TIME'
p237
S"<class 'gluon.validators.IS_TIME'>"
p238
sS'OPTION'
p239
S"<class 'gluon.html.OPTION'>"
p240
sS'TITLE'
p241
S"<class 'gluon.html.TITLE'>"
p242
sS'CRYPT'
p243
S"<class 'gluon.validators.CRYPT'>"
p244
sS'IS_EMPTY_OR'
p245
S"<class 'gluon.validators.IS_EMPTY_OR'>"
p246
sS'MARKMIN'
p247
S"<class 'gluon.html.MARKMIN'>"
p248
sS'INPUT'
p249
S"<class 'gluon.html.INPUT'>"
p250
sS'STRONG'
p251
S"<class 'gluon.html.STRONG'>"
p252
sS'COL'
p253
S"<class 'gluon.html.COL'>"
p254
sS'service'
p255
S'<gluon.tools.Service object>'
p256
sS'SCRIPT'
p257
S"<class 'gluon.html.SCRIPT'>"
p258
sS'TABLE'
p259
S"<class 'gluon.html.TABLE'>"
p260
sS'IS_IPV4'
p261
S"<class 'gluon.validators.IS_IPV4'>"
p262
sS'IS_LENGTH'
p263
S"<class 'gluon.validators.IS_LENGTH'>"
p264
sS'IS_IPV6'
p265
S"<class 'gluon.validators.IS_IPV6'>"
p266
sS'XML'
p267
S"<class 'gluon.html.XML'>"
p268
sS'B'
S"<class 'gluon.html.B'>"
p269
sS'IMG'
p270
S"<class 'gluon.html.IMG'>"
p271
sS'SQLTABLE'
p272
S"<class 'gluon.sqlhtml.SQLTABLE'>"
p273
sS'IS_MATCH'
p274
S"<class 'gluon.validators.IS_MATCH'>"
p275
sS'IS_ALPHANUMERIC'
p276
S"<class 'gluon.validators.IS_ALPHANUMERIC'>"
p277
sS'SPAN'
p278
S"<class 'gluon.html.SPAN'>"
p279
sS'IS_JSON'
p280
S"<class 'gluon.validators.IS_JSON'>"
p281
sS'IS_IPADDRESS'
p282
S"<class 'gluon.validators.IS_IPADDRESS'>"
p283
sS'IS_SLUG'
p284
S"<class 'gluon.validators.IS_SLUG'>"
p285
sS'BEAUTIFY'
p286
S"<class 'gluon.html.BEAUTIFY'>"
p287
sS'META'
p288
S"<class 'gluon.html.META'>"
p289
sS'IS_DATE'
p290
S"<class 'gluon.validators.IS_DATE'>"
p291
sS'IS_EMAIL'
p292
S"<class 'gluon.validators.IS_EMAIL'>"
p293
sS'IS_NOT_EMPTY'
p294
S"<class 'gluon.validators.IS_NOT_EMPTY'>"
p295
sg56
S"<Storage {'_vars': None, 'function': 'user', 'co...'folder': 'E:\\\\web2py\\\\applications\\\\shoebox\\\\'}>"
p296
sS'TBODY'
p297
S"<class 'gluon.html.TBODY'>"
p298
sS'CAT'
p299
S"<class 'gluon.html.CAT'>"
p300
sS'Field'
p301
S"<class 'gluon.dal.Field'>"
p302
sS'IS_LIST_OF_EMAILS'
p303
S"<class 'gluon.validators.IS_LIST_OF_EMAILS'>"
p304
sS'DIV'
p305
S"<class 'gluon.html.DIV'>"
p306
sS'LEGEND'
p307
S"<class 'gluon.html.LEGEND'>"
p308
sS'COLGROUP'
p309
S"<class 'gluon.html.COLGROUP'>"
p310
sS'DAL'
p311
S"<class 'gluon.dal.DAL'>"
p312
sS'ASSIGNJS'
p313
S'<function ASSIGNJS>'
p314
sS'TR'
p315
S"<class 'gluon.html.TR'>"
p316
sS'LI'
p317
S"<class 'gluon.html.LI'>"
p318
sS'IFRAME'
p319
S"<class 'gluon.html.IFRAME'>"
p320
sS'TD'
p321
S"<class 'gluon.html.TD'>"
p322
sS'PluginManager'
p323
S"<class 'gluon.tools.PluginManager'>"
p324
sS'IS_URL'
p325
S"<class 'gluon.validators.IS_URL'>"
p326
sS'A'
S"<class 'gluon.html.A'>"
p327
sS'STYLE'
p328
S"<class 'gluon.html.STYLE'>"
p329
sS'IS_DATETIME_IN_RANGE'
p330
S"<class 'gluon.validators.IS_DATETIME_IN_RANGE'>"
p331
sS'IS_IMAGE'
p332
S"<class 'gluon.validators.IS_IMAGE'>"
p333
sS'I'
S"<class 'gluon.html.I'>"
p334
sS'IS_NOT_IN_DB'
p335
S"<class 'gluon.validators.IS_NOT_IN_DB'>"
p336
sg100
S"<Storage {'body': <cStringIO.StringO object at 0...da> at 0x08C935F0>, 'view': 'default/user.html'}>"
p337
sS'THEAD'
p338
S"<class 'gluon.html.THEAD'>"
p339
sS'ANY_OF'
p340
S"<class 'gluon.validators.ANY_OF'>"
p341
sS'IS_NULL_OR'
p342
S"<class 'gluon.validators.IS_EMPTY_OR'>"
p343
sS'IS_FLOAT_IN_RANGE'
p344
S"<class 'gluon.validators.IS_FLOAT_IN_RANGE'>"
p345
sS'IS_EXPR'
p346
S"<class 'gluon.validators.IS_EXPR'>"
p347
sS'IS_IN_SET'
p348
S"<class 'gluon.validators.IS_IN_SET'>"
p349
sS'IS_UPLOAD_FILENAME'
p350
S"<class 'gluon.validators.IS_UPLOAD_FILENAME'>"
p351
sS'IS_DECIMAL_IN_RANGE'
p352
S"<class 'gluon.validators.IS_DECIMAL_IN_RANGE'>"
p353
sS'TT'
p354
S"<class 'gluon.html.TT'>"
p355
sS'T'
S'<gluon.languages.translator object>'
p356
sssS'traceback'
p357
S'Traceback (most recent call last):\n  File "gluon/restricted.py", line 224, in restricted\n  File "E:\\web2py\\applications\\shoebox\\models\\db_content.py", line 13, in <module>\n    Field(\'postContent\', \'text\', requires = IS_NOT_EMTPY()),\nNameError: name \'IS_NOT_EMTPY\' is not defined\n'
p358
s.