(dp1
S'output'
p2
S"<type 'exceptions.NameError'> name 'auth_user' is not defined"
p3
sS'layer'
p4
S'E:\\web2py\\applications\\shoebox\\controllers/default.py'
p5
sS'code'
p6
S'# -*- coding: utf-8 -*-\n\ndef index():\n    """ Main Page | Displays newest submitted articles """\n    return dict(message=T(\'Hello World\'))\n    \ndef articles():\n    """ Search all submitted articles """\n    form = SQLFORM.factory(Field(\'keyword\', requires=IS_NOT_EMPTY())).process()\n    if form.accepted:\n        query = db.articles.title.contains(form.vars.keyword)\n        rows = db(query).select(orderby=~db.articles.articleDate)\n    elif form.errors:\n        response.flash = "Incomplete Search!"\n        rows = \'\'\n    else:\n        rows = \'\'\n    return dict(form=form, rows=rows)\n\ndef article_CLICK():\n    """ Loads individual page for each article submitted to ShoeBox"""\n    article_id = request.args(0, cast=int)\n    article = db.articles(article_id) or redirect(URL(\'articles\'))\n    return dict(article = article)\n    \ndef authors():\n    """ Search all authors """\n    form = SQLFORM.factory(Field(\'keyword\', requires=IS_NOT_EMPTY())).process()\n    if form.accepted:\n        query = db.auth_user.first_name.contains(form.vars.keyword)\n        query = query | db.auth_user.last_name.contains(form.vars.keyword)\n        rows = db(query).select(orderby=db.auth_user.last_name)\n    elif form.errors:\n        response.flash = "Incomplete Search!"\n        rows = \'\'\n    else:\n        rows = \'\'\n    return dict(form=form, rows=rows)\n\ndef authors_CLICK():\n    """Loads individual page for each ShoeBox author"""\n    author_id = request.args(0, cast=int)\n    author = db.auth_user(author_id) or redirect(URL(\'articles\'))\n    query = db(db.articles.articleOwner==author_id).select(db.articles.title, db.articles.articleDate)\n    return dict(author = author, query = query, articles = articles)\n\n@auth.requires(auth_user.is_Administrator==True) \ndef dashboard():\n    """ Dashboard is a private user profile """\n    return dict(grid=SQLFORM.smartgrid(db.featuredPost))\n    \n########## Extras ##########\n    \ndef user():\n    """\n    exposes:\n    http://..../[app]/default/user/login\n    http://..../[app]/default/user/logout\n    http://..../[app]/default/user/register\n    http://..../[app]/default/user/profile\n    http://..../[app]/default/user/retrieve_password\n    http://..../[app]/default/user/change_password\n    http://..../[app]/default/user/manage_users (requires membership in\n    use @auth.requires_login()\n        @auth.requires_membership(\'group name\')\n        @auth.requires_permission(\'read\',\'table name\',record_id)\n    to decorate functions that need access control\n    """\n    return dict(form=auth())\n\n\n@cache.action()\ndef download():\n    """\n    allows downloading of uploaded files\n    http://..../[app]/default/download/[filename]\n    """\n    return response.download(request, db)\n\n\ndef call():\n    """\n    exposes services. for example:\n    http://..../[app]/default/call/jsonrpc\n    decorate with @services.jsonrpc the functions to expose\n    supports xml, json, xmlrpc, jsonrpc, amfrpc, rss, csv\n    """\n    return service()\n\n\n@auth.requires_login() \ndef api():\n    """\n    this is example of API with access control\n    WEB2PY provides Hypermedia API (Collection+JSON) Experimental\n    """\n    from gluon.contrib.hypermedia import Collection\n    rules = {\n        \'<tablename>\': {\'GET\':{},\'POST\':{},\'PUT\':{},\'DELETE\':{}},\n        }\n    return Collection(db).process(request,response,rules)\n\nresponse._vars=response._caller(dashboard)\n'
p7
sS'snapshot'
p8
(dp9
S'exception'
p10
(dp11
S'__hash__'
p12
S"<method-wrapper '__hash__' of exceptions.NameError object>"
p13
sS'__setattr__'
p14
S"<method-wrapper '__setattr__' of exceptions.NameError object>"
p15
sS'__reduce_ex__'
p16
S'<built-in method __reduce_ex__ of exceptions.NameError object>'
p17
sS'__getslice__'
p18
S"<method-wrapper '__getslice__' of exceptions.NameError object>"
p19
sS'__getitem__'
p20
S"<method-wrapper '__getitem__' of exceptions.NameError object>"
p21
sS'__setstate__'
p22
S'<built-in method __setstate__ of exceptions.NameError object>'
p23
sS'__reduce__'
p24
S'<built-in method __reduce__ of exceptions.NameError object>'
p25
sS'__str__'
p26
S"<method-wrapper '__str__' of exceptions.NameError object>"
p27
sS'__format__'
p28
S'<built-in method __format__ of exceptions.NameError object>'
p29
sS'__getattribute__'
p30
S"<method-wrapper '__getattribute__' of exceptions.NameError object>"
p31
sS'__class__'
p32
S"<type 'exceptions.NameError'>"
p33
sS'__unicode__'
p34
S'<built-in method __unicode__ of exceptions.NameError object>'
p35
sS'__delattr__'
p36
S"<method-wrapper '__delattr__' of exceptions.NameError object>"
p37
sS'__subclasshook__'
p38
S'<built-in method __subclasshook__ of type object>'
p39
sS'__repr__'
p40
S"<method-wrapper '__repr__' of exceptions.NameError object>"
p41
sS'args'
p42
S'("name \'auth_user\' is not defined",)'
p43
sS'__dict__'
p44
S'{}'
p45
sS'__sizeof__'
p46
S'<built-in method __sizeof__ of exceptions.NameError object>'
p47
sS'__doc__'
p48
S"'Name not found globally.'"
p49
sS'__init__'
p50
S"<method-wrapper '__init__' of exceptions.NameError object>"
p51
sS'__new__'
p52
S'<built-in method __new__ of type object>'
p53
ssS'evalue'
p54
S"name 'auth_user' is not defined"
p55
sS'request'
p56
cgluon.html
XML_unpickle
p57
(S's\x17W\x00\x00<div><table><tr><td style="font-weight:bold;vertical-align:top;">ajax</td><td style="vertical-align:top;">:</td><td><div>False</div></td></tr><tr><td style="font-weight:bold;vertical-align:top;">application</td><td style="vertical-align:top;">:</td><td><div>shoebox</div></td></tr><tr><td style="font-weight:bold;vertical-align:top;">args</td><td style="vertical-align:top;">:</td><td><div><table></table></div></td></tr><tr><td style="font-weight:bold;vertical-align:top;">cid</td><td style="vertical-align:top;">:</td><td><div>None</div></td></tr><tr><td style="font-weight:bold;vertical-align:top;">client</td><td style="vertical-align:top;">:</td><td><div>127.0.0.1</div></td></tr><tr><td style="font-weight:bold;vertical-align:top;">controller</td><td style="vertical-align:top;">:</td><td><div>default</div></td></tr><tr><td style="font-weight:bold;vertical-align:top;">cookies</td><td style="vertical-align:top;">:</td><td><div><table><tr><td style="font-weight:bold;vertical-align:top;">session_id_admin</td><td style="vertical-align:top;">:</td><td><div>127.0.0.1-6e7c47ef-e18e-487d-9fa3-96da5803a1ae<table><tr><td style="font-weight:bold;vertical-align:top;">comment</td><td style="vertical-align:top;">:</td><td><div></div></td></tr><tr><td style="font-weight:bold;vertical-align:top;">domain</td><td style="vertical-align:top;">:</td><td><div></div></td></tr><tr><td style="font-weight:bold;vertical-align:top;">expires</td><td style="vertical-align:top;">:</td><td><div></div></td></tr><tr><td style="font-weight:bold;vertical-align:top;">httponly</td><td style="vertical-align:top;">:</td><td><div></div></td></tr><tr><td style="font-weight:bold;vertical-align:top;">max-age</td><td style="vertical-align:top;">:</td><td><div></div></td></tr><tr><td style="font-weight:bold;vertical-align:top;">path</td><td style="vertical-align:top;">:</td><td><div></div></td></tr><tr><td style="font-weight:bold;vertical-align:top;">secure</td><td style="vertical-align:top;">:</td><td><div></div></td></tr><tr><td style="font-weight:bold;vertical-align:top;">version</td><td style="vertical-align:top;">:</td><td><div></div></td></tr></table></div></td></tr><tr><td style="font-weight:bold;vertical-align:top;">session_id_shoebox</td><td style="vertical-align:top;">:</td><td><div>127.0.0.1-93826c5d-1ad7-484d-b1c3-00b6caa53dc3<table><tr><td style="font-weight:bold;vertical-align:top;">comment</td><td style="vertical-align:top;">:</td><td><div></div></td></tr><tr><td style="font-weight:bold;vertical-align:top;">domain</td><td style="vertical-align:top;">:</td><td><div></div></td></tr><tr><td style="font-weight:bold;vertical-align:top;">expires</td><td style="vertical-align:top;">:</td><td><div></div></td></tr><tr><td style="font-weight:bold;vertical-align:top;">httponly</td><td style="vertical-align:top;">:</td><td><div></div></td></tr><tr><td style="font-weight:bold;vertical-align:top;">max-age</td><td style="vertical-align:top;">:</td><td><div></div></td></tr><tr><td style="font-weight:bold;vertical-align:top;">path</td><td style="vertical-align:top;">:</td><td><div></div></td></tr><tr><td style="font-weight:bold;vertical-align:top;">secure</td><td style="vertical-align:top;">:</td><td><div></div></td></tr><tr><td style="font-weight:bold;vertical-align:top;">version</td><td style="vertical-align:top;">:</td><td><div></div></td></tr></table></div></td></tr></table></div></td></tr><tr><td style="font-weight:bold;vertical-align:top;">env</td><td style="vertical-align:top;">:</td><td><div><table><tr><td style="font-weight:bold;vertical-align:top;">HTTP_ACCEPT</td><td style="vertical-align:top;">:</td><td><div>text/html,application/xhtml+xml,application/xml;q=0.9,*/*;q=0.8</div></td></tr><tr><td style="font-weight:bold;vertical-align:top;">HTTP_ACCEPT_ENCODING</td><td style="vertical-align:top;">:</td><td><div>gzip, deflate</div></td></tr><tr><td style="font-weight:bold;vertical-align:top;">HTTP_ACCEPT_LANGUAGE</td><td style="vertical-align:top;">:</td><td><div>en</div></td></tr><tr><td style="font-weight:bold;vertical-align:top;">HTTP_CONNECTION</td><td style="vertical-align:top;">:</td><td><div>keep-alive</div></td></tr><tr><td style="font-weight:bold;vertical-align:top;">HTTP_COOKIE</td><td style="vertical-align:top;">:</td><td><div>session_id_admin=127.0.0.1-6e7c47ef-e18e-487d-9fa3-96da5803a1ae; session_id_shoebox=127.0.0.1-93826c5d-1ad7-484d-b1c3-00b6caa53dc3</div></td></tr><tr><td style="font-weight:bold;vertical-align:top;">HTTP_DNT</td><td style="vertical-align:top;">:</td><td><div>1</div></td></tr><tr><td style="font-weight:bold;vertical-align:top;">HTTP_HOST</td><td style="vertical-align:top;">:</td><td><div>127.0.0.1:8000</div></td></tr><tr><td style="font-weight:bold;vertical-align:top;">HTTP_REFERER</td><td style="vertical-align:top;">:</td><td><div>http://127.0.0.1:8000/shoebox/default/user/not_authorized</div></td></tr><tr><td style="font-weight:bold;vertical-align:top;">HTTP_USER_AGENT</td><td style="vertical-align:top;">:</td><td><div>Mozilla/5.0 (Windows NT 6.3; WOW64; rv:33.0) Gecko/20100101 Firefox/33.0</div></td></tr><tr><td style="font-weight:bold;vertical-align:top;">PATH_INFO</td><td style="vertical-align:top;">:</td><td><div>/shoebox/default/dashboard</div></td></tr><tr><td style="font-weight:bold;vertical-align:top;">QUERY_STRING</td><td style="vertical-align:top;">:</td><td><div></div></td></tr><tr><td style="font-weight:bold;vertical-align:top;">REMOTE_ADDR</td><td style="vertical-align:top;">:</td><td><div>127.0.0.1</div></td></tr><tr><td style="font-weight:bold;vertical-align:top;">REMOTE_PORT</td><td style="vertical-align:top;">:</td><td><div>52605</div></td></tr><tr><td style="font-weight:bold;vertical-align:top;">REQUEST_METHOD</td><td style="vertical-align:top;">:</td><td><div>GET</div></td></tr><tr><td style="font-weight:bold;vertical-align:top;">SCRIPT_NAME</td><td style="vertical-align:top;">:</td><td><div></div></td></tr><tr><td style="font-weight:bold;vertical-align:top;">SERVER_NAME</td><td style="vertical-align:top;">:</td><td><div>Piotr-PC</div></td></tr><tr><td style="font-weight:bold;vertical-align:top;">SERVER_PORT</td><td style="vertical-align:top;">:</td><td><div>8000</div></td></tr><tr><td style="font-weight:bold;vertical-align:top;">SERVER_PROTOCOL</td><td style="vertical-align:top;">:</td><td><div>HTTP/1.1</div></td></tr><tr><td style="font-weight:bold;vertical-align:top;">SERVER_SOFTWARE</td><td style="vertical-align:top;">:</td><td><div>Rocket 1.2.6</div></td></tr><tr><td style="font-weight:bold;vertical-align:top;">app_folders</td><td style="vertical-align:top;">:</td><td><div>set([&#x27;E:\\\\web2py\\\\applications\\\\shoebox\\\\&#x27;, &#x27;E:\\\\web2py\\\\applications\\\\admin\\\\&#x27;])</div></td></tr><tr><td style="font-weight:bold;vertical-align:top;">applications_parent</td><td style="vertical-align:top;">:</td><td><div>E:\\web2py</div></td></tr><tr><td style="font-weight:bold;vertical-align:top;">cmd_args</td><td style="vertical-align:top;">:</td><td><div><table></table></div></td></tr><tr><td style="font-weight:bold;vertical-align:top;">cmd_options</td><td style="vertical-align:top;">:</td><td><div>&lt;Values at 0x2966670: {&#x27;verbose&#x27;: False, &#x27;ip&#x27;: &#x27;127.0.0.1&#x27;, &#x27;debuglevel&#x27;: 30, &#x27;with_scheduler&#x27;: False, &#x27;ips&#x27;: [], &#x27;shutdown_timeout&#x27;: 5, &#x27;taskbar&#x27;: False, &#x27;with_coverage&#x27;: False, &#x27;scheduler_groups&#x27;: None, &#x27;port&#x27;: 8000, &#x27;maxthreads&#x27;: None, &#x27;softcron&#x27;: False, &#x27;server_name&#x27;: &#x27;Piotr-PC&#x27;, &#x27;bpython&#x27;: False, &#x27;nogui&#x27;: False, &#x27;pid_filename&#x27;: &#x27;httpserver.pid&#x27;, &#x27;extcron&#x27;: False, &#x27;runcron&#x27;: False, &#x27;run_system_tests&#x27;: False, &#x27;test&#x27;: None, &#x27;folder&#x27;: &#x27;E:\\\\web2py&#x27;, &#x27;config&#x27;: &#x27;&#x27;, &#x27;minthreads&#x27;: None, &#x27;shell&#x27;: None, &#x27;run&#x27;: &#x27;&#x27;, &#x27;log_filename&#x27;: &#x27;httpserver.log&#x27;, &#x27;profiler_dir&#x27;: None, &#x27;args&#x27;: [&#x27;&#x27;], &#x27;socket_timeout&#x27;: 5, &#x27;ssl_ca_certificate&#x27;: None, &#x27;scheduler&#x27;: None, &#x27;interfaces&#x27;: None, &#x27;ssl_private_key&#x27;: &#x27;&#x27;, &#x27;gae&#x27;: None, &#x27;password&#x27;: &#x27;&lt;ask&gt;&#x27;, &#x27;request_queue_size&#x27;: 5, &#x27;ssl_certificate&#x27;: &#x27;&#x27;, &#x27;cronjob&#x27;: False, &#x27;numthreads&#x27;: None, &#x27;quiet&#x27;: False, &#x27;import_models&#x27;: False, &#x27;timeout&#x27;: 10, &#x27;plain&#x27;: False, &#x27;nobanner&#x27;: False}&gt;</div></td></tr><tr><td style="font-weight:bold;vertical-align:top;">db_sessions</td><td style="vertical-align:top;">:</td><td><div>set([])</div></td></tr><tr><td style="font-weight:bold;vertical-align:top;">debugging</td><td style="vertical-align:top;">:</td><td><div>False</div></td></tr><tr><td style="font-weight:bold;vertical-align:top;">gluon_parent</td><td style="vertical-align:top;">:</td><td><div>E:\\web2py</div></td></tr><tr><td style="font-weight:bold;vertical-align:top;">http_accept</td><td style="vertical-align:top;">:</td><td><div>text/html,application/xhtml+xml,application/xml;q=0.9,*/*;q=0.8</div></td></tr><tr><td style="font-weight:bold;vertical-align:top;">http_accept_encoding</td><td style="vertical-align:top;">:</td><td><div>gzip, deflate</div></td></tr><tr><td style="font-weight:bold;vertical-align:top;">http_accept_language</td><td style="vertical-align:top;">:</td><td><div>en</div></td></tr><tr><td style="font-weight:bold;vertical-align:top;">http_connection</td><td style="vertical-align:top;">:</td><td><div>keep-alive</div></td></tr><tr><td style="font-weight:bold;vertical-align:top;">http_cookie</td><td style="vertical-align:top;">:</td><td><div>session_id_admin=127.0.0.1-6e7c47ef-e18e-487d-9fa3-96da5803a1ae; session_id_shoebox=127.0.0.1-93826c5d-1ad7-484d-b1c3-00b6caa53dc3</div></td></tr><tr><td style="font-weight:bold;vertical-align:top;">http_dnt</td><td style="vertical-align:top;">:</td><td><div>1</div></td></tr><tr><td style="font-weight:bold;vertical-align:top;">http_host</td><td style="vertical-align:top;">:</td><td><div>127.0.0.1:8000</div></td></tr><tr><td style="font-weight:bold;vertical-align:top;">http_referer</td><td style="vertical-align:top;">:</td><td><div>http://127.0.0.1:8000/shoebox/default/user/not_authorized</div></td></tr><tr><td style="font-weight:bold;vertical-align:top;">http_user_agent</td><td style="vertical-align:top;">:</td><td><div>Mozilla/5.0 (Windows NT 6.3; WOW64; rv:33.0) Gecko/20100101 Firefox/33.0</div></td></tr><tr><td style="font-weight:bold;vertical-align:top;">is_jython</td><td style="vertical-align:top;">:</td><td><div>False</div></td></tr><tr><td style="font-weight:bold;vertical-align:top;">is_pypy</td><td style="vertical-align:top;">:</td><td><div>False</div></td></tr><tr><td style="font-weight:bold;vertical-align:top;">is_source</td><td style="vertical-align:top;">:</td><td><div>False</div></td></tr><tr><td style="font-weight:bold;vertical-align:top;">local_hosts</td><td style="vertical-align:top;">:</td><td><div><table><tr><td><div>Piotr-PC</div></td></tr><tr><td><div>192.168.1.145</div></td></tr><tr><td><div>::ffff:127.0.0.1</div></td></tr><tr><td><div>::1</div></td></tr><tr><td><div>Piotr-PC.hsd1.il.comcast.net.</div></td></tr><tr><td><div>fe80::c1e6:a3a6:1ad4:a5ce%5</div></td></tr><tr><td><div>fe80::461:3783:b810:9179%8</div></td></tr><tr><td><div>2001:0:9d38:6abd:461:3783:b810:9179</div></td></tr><tr><td><div>127.0.0.1</div></td></tr></table></div></td></tr><tr><td style="font-weight:bold;vertical-align:top;">path_info</td><td style="vertical-align:top;">:</td><td><div>/shoebox/default/dashboard</div></td></tr><tr><td style="font-weight:bold;vertical-align:top;">query_string</td><td style="vertical-align:top;">:</td><td><div></div></td></tr><tr><td style="font-weight:bold;vertical-align:top;">remote_addr</td><td style="vertical-align:top;">:</td><td><div>127.0.0.1</div></td></tr><tr><td style="font-weight:bold;vertical-align:top;">remote_port</td><td style="vertical-align:top;">:</td><td><div>52605</div></td></tr><tr><td style="font-weight:bold;vertical-align:top;">request_method</td><td style="vertical-align:top;">:</td><td><div>GET</div></td></tr><tr><td style="font-weight:bold;vertical-align:top;">request_uri</td><td style="vertical-align:top;">:</td><td><div>/shoebox/default/dashboard</div></td></tr><tr><td style="font-weight:bold;vertical-align:top;">script_name</td><td style="vertical-align:top;">:</td><td><div></div></td></tr><tr><td style="font-weight:bold;vertical-align:top;">server_name</td><td style="vertical-align:top;">:</td><td><div>Piotr-PC</div></td></tr><tr><td style="font-weight:bold;vertical-align:top;">server_port</td><td style="vertical-align:top;">:</td><td><div>8000</div></td></tr><tr><td style="font-weight:bold;vertical-align:top;">server_protocol</td><td style="vertical-align:top;">:</td><td><div>HTTP/1.1</div></td></tr><tr><td style="font-weight:bold;vertical-align:top;">server_software</td><td style="vertical-align:top;">:</td><td><div>Rocket 1.2.6</div></td></tr><tr><td style="font-weight:bold;vertical-align:top;">web2py_path</td><td style="vertical-align:top;">:</td><td><div>E:\\web2py</div></td></tr><tr><td style="font-weight:bold;vertical-align:top;">web2py_version</td><td style="vertical-align:top;">:</td><td><div>2.9.11-stable+timestamp.2014.09.15.23.35.11</div></td></tr><tr><td style="font-weight:bold;vertical-align:top;">wsgi.errors</td><td style="vertical-align:top;">:</td><td><div>&lt;open file &#x27;&lt;stderr&gt;&#x27;, mode &#x27;w&#x27; at 0x004C60D0&gt;</div></td></tr><tr><td style="font-weight:bold;vertical-align:top;">wsgi.file_wrapper</td><td style="vertical-align:top;">:</td><td><div>&lt;class wsgiref.util.FileWrapper at 0x01E51960&gt;</div></td></tr><tr><td style="font-weight:bold;vertical-align:top;">wsgi.input</td><td style="vertical-align:top;">:</td><td><div>&lt;socket._fileobject object at 0x086358B0&gt;</div></td></tr><tr><td style="font-weight:bold;vertical-align:top;">wsgi.multiprocess</td><td style="vertical-align:top;">:</td><td><div>False</div></td></tr><tr><td style="font-weight:bold;vertical-align:top;">wsgi.multithread</td><td style="vertical-align:top;">:</td><td><div>True</div></td></tr><tr><td style="font-weight:bold;vertical-align:top;">wsgi.run_once</td><td style="vertical-align:top;">:</td><td><div>False</div></td></tr><tr><td style="font-weight:bold;vertical-align:top;">wsgi.url_scheme</td><td style="vertical-align:top;">:</td><td><div>http</div></td></tr><tr><td style="font-weight:bold;vertical-align:top;">wsgi.version</td><td style="vertical-align:top;">:</td><td><div><table><tr><td><div>1</div></td></tr><tr><td><div>0</div></td></tr></table></div></td></tr><tr><td style="font-weight:bold;vertical-align:top;">wsgi_errors</td><td style="vertical-align:top;">:</td><td><div>&lt;open file &#x27;&lt;stderr&gt;&#x27;, mode &#x27;w&#x27; at 0x004C60D0&gt;</div></td></tr><tr><td style="font-weight:bold;vertical-align:top;">wsgi_file_wrapper</td><td style="vertical-align:top;">:</td><td><div>&lt;class wsgiref.util.FileWrapper at 0x01E51960&gt;</div></td></tr><tr><td style="font-weight:bold;vertical-align:top;">wsgi_input</td><td style="vertical-align:top;">:</td><td><div>&lt;socket._fileobject object at 0x086358B0&gt;</div></td></tr><tr><td style="font-weight:bold;vertical-align:top;">wsgi_multiprocess</td><td style="vertical-align:top;">:</td><td><div>False</div></td></tr><tr><td style="font-weight:bold;vertical-align:top;">wsgi_multithread</td><td style="vertical-align:top;">:</td><td><div>True</div></td></tr><tr><td style="font-weight:bold;vertical-align:top;">wsgi_run_once</td><td style="vertical-align:top;">:</td><td><div>False</div></td></tr><tr><td style="font-weight:bold;vertical-align:top;">wsgi_url_scheme</td><td style="vertical-align:top;">:</td><td><div>http</div></td></tr><tr><td style="font-weight:bold;vertical-align:top;">wsgi_version</td><td style="vertical-align:top;">:</td><td><div><table><tr><td><div>1</div></td></tr><tr><td><div>0</div></td></tr></table></div></td></tr></table></div></td></tr><tr><td style="font-weight:bold;vertical-align:top;">extension</td><td style="vertical-align:top;">:</td><td><div>html</div></td></tr><tr><td style="font-weight:bold;vertical-align:top;">folder</td><td style="vertical-align:top;">:</td><td><div>E:\\web2py\\applications\\shoebox\\</div></td></tr><tr><td style="font-weight:bold;vertical-align:top;">function</td><td style="vertical-align:top;">:</td><td><div>dashboard</div></td></tr><tr><td style="font-weight:bold;vertical-align:top;">global_settings</td><td style="vertical-align:top;">:</td><td><div><table><tr><td style="font-weight:bold;vertical-align:top;">app_folders</td><td style="vertical-align:top;">:</td><td><div>set([&#x27;E:\\\\web2py\\\\applications\\\\shoebox\\\\&#x27;, &#x27;E:\\\\web2py\\\\applications\\\\admin\\\\&#x27;])</div></td></tr><tr><td style="font-weight:bold;vertical-align:top;">applications_parent</td><td style="vertical-align:top;">:</td><td><div>E:\\web2py</div></td></tr><tr><td style="font-weight:bold;vertical-align:top;">cmd_args</td><td style="vertical-align:top;">:</td><td><div><table></table></div></td></tr><tr><td style="font-weight:bold;vertical-align:top;">cmd_options</td><td style="vertical-align:top;">:</td><td><div>&lt;Values at 0x2966670: {&#x27;verbose&#x27;: False, &#x27;ip&#x27;: &#x27;127.0.0.1&#x27;, &#x27;debuglevel&#x27;: 30, &#x27;with_scheduler&#x27;: False, &#x27;ips&#x27;: [], &#x27;shutdown_timeout&#x27;: 5, &#x27;taskbar&#x27;: False, &#x27;with_coverage&#x27;: False, &#x27;scheduler_groups&#x27;: None, &#x27;port&#x27;: 8000, &#x27;maxthreads&#x27;: None, &#x27;softcron&#x27;: False, &#x27;server_name&#x27;: &#x27;Piotr-PC&#x27;, &#x27;bpython&#x27;: False, &#x27;nogui&#x27;: False, &#x27;pid_filename&#x27;: &#x27;httpserver.pid&#x27;, &#x27;extcron&#x27;: False, &#x27;runcron&#x27;: False, &#x27;run_system_tests&#x27;: False, &#x27;test&#x27;: None, &#x27;folder&#x27;: &#x27;E:\\\\web2py&#x27;, &#x27;config&#x27;: &#x27;&#x27;, &#x27;minthreads&#x27;: None, &#x27;shell&#x27;: None, &#x27;run&#x27;: &#x27;&#x27;, &#x27;log_filename&#x27;: &#x27;httpserver.log&#x27;, &#x27;profiler_dir&#x27;: None, &#x27;args&#x27;: [&#x27;&#x27;], &#x27;socket_timeout&#x27;: 5, &#x27;ssl_ca_certificate&#x27;: None, &#x27;scheduler&#x27;: None, &#x27;interfaces&#x27;: None, &#x27;ssl_private_key&#x27;: &#x27;&#x27;, &#x27;gae&#x27;: None, &#x27;password&#x27;: &#x27;&lt;ask&gt;&#x27;, &#x27;request_queue_size&#x27;: 5, &#x27;ssl_certificate&#x27;: &#x27;&#x27;, &#x27;cronjob&#x27;: False, &#x27;numthreads&#x27;: None, &#x27;quiet&#x27;: False, &#x27;import_models&#x27;: False, &#x27;timeout&#x27;: 10, &#x27;plain&#x27;: False, &#x27;nobanner&#x27;: False}&gt;</div></td></tr><tr><td style="font-weight:bold;vertical-align:top;">db_sessions</td><td style="vertical-align:top;">:</td><td><div>set([])</div></td></tr><tr><td style="font-weight:bold;vertical-align:top;">debugging</td><td style="vertical-align:top;">:</td><td><div>False</div></td></tr><tr><td style="font-weight:bold;vertical-align:top;">gluon_parent</td><td style="vertical-align:top;">:</td><td><div>E:\\web2py</div></td></tr><tr><td style="font-weight:bold;vertical-align:top;">is_jython</td><td style="vertical-align:top;">:</td><td><div>False</div></td></tr><tr><td style="font-weight:bold;vertical-align:top;">is_pypy</td><td style="vertical-align:top;">:</td><td><div>False</div></td></tr><tr><td style="font-weight:bold;vertical-align:top;">is_source</td><td style="vertical-align:top;">:</td><td><div>False</div></td></tr><tr><td style="font-weight:bold;vertical-align:top;">local_hosts</td><td style="vertical-align:top;">:</td><td><div><table><tr><td><div>Piotr-PC</div></td></tr><tr><td><div>192.168.1.145</div></td></tr><tr><td><div>::ffff:127.0.0.1</div></td></tr><tr><td><div>::1</div></td></tr><tr><td><div>Piotr-PC.hsd1.il.comcast.net.</div></td></tr><tr><td><div>fe80::c1e6:a3a6:1ad4:a5ce%5</div></td></tr><tr><td><div>fe80::461:3783:b810:9179%8</div></td></tr><tr><td><div>2001:0:9d38:6abd:461:3783:b810:9179</div></td></tr><tr><td><div>127.0.0.1</div></td></tr></table></div></td></tr><tr><td style="font-weight:bold;vertical-align:top;">web2py_version</td><td style="vertical-align:top;">:</td><td><div>2.9.11-stable+timestamp.2014.09.15.23.35.11</div></td></tr></table></div></td></tr><tr><td style="font-weight:bold;vertical-align:top;">is_https</td><td style="vertical-align:top;">:</td><td><div>False</div></td></tr><tr><td style="font-weight:bold;vertical-align:top;">is_local</td><td style="vertical-align:top;">:</td><td><div>True</div></td></tr><tr><td style="font-weight:bold;vertical-align:top;">is_restful</td><td style="vertical-align:top;">:</td><td><div>False</div></td></tr><tr><td style="font-weight:bold;vertical-align:top;">is_sheduler</td><td style="vertical-align:top;">:</td><td><div>None</div></td></tr><tr><td style="font-weight:bold;vertical-align:top;">is_shell</td><td style="vertical-align:top;">:</td><td><div>None</div></td></tr><tr><td style="font-weight:bold;vertical-align:top;">now</td><td style="vertical-align:top;">:</td><td><div>datetime.datetime(2014, 11, 21, 16, 20, 46, 600000)</div></td></tr><tr><td style="font-weight:bold;vertical-align:top;">raw_args</td><td style="vertical-align:top;">:</td><td><div></div></td></tr><tr><td style="font-weight:bold;vertical-align:top;">raw_extension</td><td style="vertical-align:top;">:</td><td><div>None</div></td></tr><tr><td style="font-weight:bold;vertical-align:top;">url</td><td style="vertical-align:top;">:</td><td><div>/shoebox/default/dashboard</div></td></tr><tr><td style="font-weight:bold;vertical-align:top;">utcnow</td><td style="vertical-align:top;">:</td><td><div>datetime.datetime(2014, 11, 21, 22, 20, 46, 600000)</div></td></tr><tr><td style="font-weight:bold;vertical-align:top;">uuid</td><td style="vertical-align:top;">:</td><td><div>shoebox/127.0.0.1.2014-11-21.16-20-46.42548237-a47e-4c6a-934a-b44f2a63af3c</div></td></tr><tr><td style="font-weight:bold;vertical-align:top;">wsgi</td><td style="vertical-align:top;">:</td><td><div>&lt;gluon.main.LazyWSGI object at 0x086CD570&gt;</div></td></tr></table></div>'
tRp58
sS'frames'
p59
(lp60
(dp61
S'file'
p62
S'E:\\web2py\\gluon\\restricted.py'
p63
sS'dump'
p64
(dp65
sS'lnum'
p66
I224
sS'lines'
p67
(dp68
sS'call'
p69
S'(code=\'# -*- coding: utf-8 -*-\\n\\ndef index():\\n    """ Ma...les)\\n\\nresponse._vars=response._caller(dashboard)\\n\', environment={\'A\': <class \'gluon.html.A\'>, \'ANY_OF\': <class \'gluon.validators.ANY_OF\'>, \'ASSIGNJS\': <function ASSIGNJS>, \'Auth\': <class \'gluon.tools.Auth\'>, \'B\': <class \'gluon.html.B\'>, \'BEAUTIFY\': <class \'gluon.html.BEAUTIFY\'>, \'BODY\': <class \'gluon.html.BODY\'>, \'BR\': <class \'gluon.html.BR\'>, \'BUTTON\': <class \'gluon.html.BUTTON\'>, \'CAT\': <class \'gluon.html.CAT\'>, ...}, layer=r\'E:\\web2py\\applications\\shoebox\\controllers/default.py\')'
p70
sS'func'
p71
S'restricted'
p72
sa(dp73
g62
S'E:\\web2py\\applications\\shoebox\\controllers\\default.py'
p74
sg64
(dp75
S'dashboard'
p76
S'undefined'
p77
ssg66
I47
sg67
(dp78
I42
S'    author_id = request.args(0, cast=int)'
p79
sI43
S"    author = db.auth_user(author_id) or redirect(URL('articles'))"
p80
sI44
S'    query = db(db.articles.articleOwner==author_id).select(db.articles.title, db.articles.articleDate)'
p81
sI45
S'    return dict(author = author, query = query, articles = articles)'
p82
sI46
S''
sI47
S'@auth.requires(auth_user.is_Administrator==True)'
p83
sI48
S'def dashboard():'
p84
sI49
S'    """ Dashboard is a private user profile """'
p85
sI50
S'    return dict(grid=SQLFORM.smartgrid(db.featuredPost))'
p86
sI51
S''
ssg69
S'()'
p87
sg71
S'<module>'
p88
sasS'pyver'
p89
S'Python 2.7.6: E:\\web2py\\web2py.exe (prefix: C:\\Python27)'
p90
sS'session'
p91
g57
(S's7\r\x00\x00<div><table><tr><td style="font-weight:bold;vertical-align:top;">auth</td><td style="vertical-align:top;">:</td><td><div><table><tr><td style="font-weight:bold;vertical-align:top;">expiration</td><td style="vertical-align:top;">:</td><td><div>3600</div></td></tr><tr><td style="font-weight:bold;vertical-align:top;">hmac_key</td><td style="vertical-align:top;">:</td><td><div>b7259804-ef44-47e4-98c3-9dcc982d19fd</div></td></tr><tr><td style="font-weight:bold;vertical-align:top;">last_visit</td><td style="vertical-align:top;">:</td><td><div>datetime.datetime(2014, 11, 21, 16, 16, 13, 555000)</div></td></tr><tr><td style="font-weight:bold;vertical-align:top;">remember_me</td><td style="vertical-align:top;">:</td><td><div>False</div></td></tr><tr><td style="font-weight:bold;vertical-align:top;">user</td><td style="vertical-align:top;">:</td><td><div><table><tr><td style="font-weight:bold;vertical-align:top;">address</td><td style="vertical-align:top;">:</td><td><div>None</div></td></tr><tr><td style="font-weight:bold;vertical-align:top;">city</td><td style="vertical-align:top;">:</td><td><div>None</div></td></tr><tr><td style="font-weight:bold;vertical-align:top;">country</td><td style="vertical-align:top;">:</td><td><div>None</div></td></tr><tr><td style="font-weight:bold;vertical-align:top;">email</td><td style="vertical-align:top;">:</td><td><div>peter.bogun@example.com</div></td></tr><tr><td style="font-weight:bold;vertical-align:top;">first_name</td><td style="vertical-align:top;">:</td><td><div>Peter</div></td></tr><tr><td style="font-weight:bold;vertical-align:top;">id</td><td style="vertical-align:top;">:</td><td><div>1L</div></td></tr><tr><td style="font-weight:bold;vertical-align:top;">is_administrator</td><td style="vertical-align:top;">:</td><td><div>True</div></td></tr><tr><td style="font-weight:bold;vertical-align:top;">is_author</td><td style="vertical-align:top;">:</td><td><div>True</div></td></tr><tr><td style="font-weight:bold;vertical-align:top;">last_name</td><td style="vertical-align:top;">:</td><td><div>Bogun</div></td></tr><tr><td style="font-weight:bold;vertical-align:top;">phone_number</td><td style="vertical-align:top;">:</td><td><div>None</div></td></tr><tr><td style="font-weight:bold;vertical-align:top;">region</td><td style="vertical-align:top;">:</td><td><div>None</div></td></tr><tr><td style="font-weight:bold;vertical-align:top;">registration_id</td><td style="vertical-align:top;">:</td><td><div></div></td></tr><tr><td style="font-weight:bold;vertical-align:top;">registration_key</td><td style="vertical-align:top;">:</td><td><div></div></td></tr><tr><td style="font-weight:bold;vertical-align:top;">reset_password_key</td><td style="vertical-align:top;">:</td><td><div></div></td></tr></table></div></td></tr><tr><td style="font-weight:bold;vertical-align:top;">user_groups</td><td style="vertical-align:top;">:</td><td><div><table></table></div></td></tr></table></div></td></tr><tr><td style="font-weight:bold;vertical-align:top;">flash</td><td style="vertical-align:top;">:</td><td><div>None</div></td></tr><tr><td style="font-weight:bold;vertical-align:top;">last_orderby</td><td style="vertical-align:top;">:</td><td><div>None</div></td></tr><tr><td style="font-weight:bold;vertical-align:top;">last_query</td><td style="vertical-align:top;">:</td><td><div>db.auth_user.id&gt;0</div></td></tr></table></div>'
tRp92
sS'etype'
p93
S"<type 'exceptions.NameError'>"
p94
sS'date'
p95
S'Fri Nov 21 16:20:46 2014'
p96
sS'response'
p97
g57
(S'sB\x1e\x00\x00<div><table><tr><td style="font-weight:bold;vertical-align:top;">body</td><td style="vertical-align:top;">:</td><td><div>&lt;cStringIO.StringO object at 0x084CDDE0&gt;</div></td></tr><tr><td style="font-weight:bold;vertical-align:top;">cookies</td><td style="vertical-align:top;">:</td><td><div><table><tr><td style="font-weight:bold;vertical-align:top;">session_id_shoebox</td><td style="vertical-align:top;">:</td><td><div>127.0.0.1-93826c5d-1ad7-484d-b1c3-00b6caa53dc3<table><tr><td style="font-weight:bold;vertical-align:top;">comment</td><td style="vertical-align:top;">:</td><td><div></div></td></tr><tr><td style="font-weight:bold;vertical-align:top;">domain</td><td style="vertical-align:top;">:</td><td><div></div></td></tr><tr><td style="font-weight:bold;vertical-align:top;">expires</td><td style="vertical-align:top;">:</td><td><div></div></td></tr><tr><td style="font-weight:bold;vertical-align:top;">httponly</td><td style="vertical-align:top;">:</td><td><div></div></td></tr><tr><td style="font-weight:bold;vertical-align:top;">max-age</td><td style="vertical-align:top;">:</td><td><div></div></td></tr><tr><td style="font-weight:bold;vertical-align:top;">path</td><td style="vertical-align:top;">:</td><td><div>/</div></td></tr><tr><td style="font-weight:bold;vertical-align:top;">secure</td><td style="vertical-align:top;">:</td><td><div></div></td></tr><tr><td style="font-weight:bold;vertical-align:top;">version</td><td style="vertical-align:top;">:</td><td><div></div></td></tr></table></div></td></tr></table></div></td></tr><tr><td style="font-weight:bold;vertical-align:top;">delimiters</td><td style="vertical-align:top;">:</td><td><div><table><tr><td><div>{{</div></td></tr><tr><td><div>}}</div></td></tr></table></div></td></tr><tr><td style="font-weight:bold;vertical-align:top;">files</td><td style="vertical-align:top;">:</td><td><div><table></table></div></td></tr><tr><td style="font-weight:bold;vertical-align:top;">flash</td><td style="vertical-align:top;">:</td><td><div></div></td></tr><tr><td style="font-weight:bold;vertical-align:top;">form_label_separator</td><td style="vertical-align:top;">:</td><td><div>: </div></td></tr><tr><td style="font-weight:bold;vertical-align:top;">formstyle</td><td style="vertical-align:top;">:</td><td><div>table3cols</div></td></tr><tr><td style="font-weight:bold;vertical-align:top;">generic_patterns</td><td style="vertical-align:top;">:</td><td><div><table><tr><td><div>*</div></td></tr></table></div></td></tr><tr><td style="font-weight:bold;vertical-align:top;">google_analytics_id</td><td style="vertical-align:top;">:</td><td><div>None</div></td></tr><tr><td style="font-weight:bold;vertical-align:top;">headers</td><td style="vertical-align:top;">:</td><td><div><table><tr><td style="font-weight:bold;vertical-align:top;">X-Powered-By</td><td style="vertical-align:top;">:</td><td><div>web2py</div></td></tr></table></div></td></tr><tr><td style="font-weight:bold;vertical-align:top;">logo</td><td style="vertical-align:top;">:</td><td><div><a class="brand" href="http://127.0.0.1:8000/shoebox"><b>ShoeBox</b>&trade;&nbsp;</a></div></td></tr><tr><td style="font-weight:bold;vertical-align:top;">menu</td><td style="vertical-align:top;">:</td><td><div><table><tr><td><div><table><tr><td><div>Home</div></td></tr><tr><td><div>False</div></td></tr><tr><td><div>/shoebox/default/index</div></td></tr></table></div></td></tr><tr><td><div><table><tr><td><div>Articles</div></td></tr><tr><td><div>False</div></td></tr><tr><td><div>/shoebox/default/articles</div></td></tr></table></div></td></tr><tr><td><div><table><tr><td><div>Authors</div></td></tr><tr><td><div>False</div></td></tr><tr><td><div>/shoebox/default/authors</div></td></tr></table></div></td></tr><tr><td><div><table><tr><td><div>Dashboard</div></td></tr><tr><td><div>False</div></td></tr><tr><td><div>/shoebox/default/dashboard</div></td></tr></table></div></td></tr></table></div></td></tr><tr><td style="font-weight:bold;vertical-align:top;">meta</td><td style="vertical-align:top;">:</td><td><div><table><tr><td style="font-weight:bold;vertical-align:top;">author</td><td style="vertical-align:top;">:</td><td><div>Your Name &lt;you@example.com&gt;</div></td></tr><tr><td style="font-weight:bold;vertical-align:top;">description</td><td style="vertical-align:top;">:</td><td><div>a cool new app</div></td></tr><tr><td style="font-weight:bold;vertical-align:top;">generator</td><td style="vertical-align:top;">:</td><td><div>Web2py Web Framework</div></td></tr><tr><td style="font-weight:bold;vertical-align:top;">keywords</td><td style="vertical-align:top;">:</td><td><div>web2py, python, framework</div></td></tr></table></div></td></tr><tr><td style="font-weight:bold;vertical-align:top;">models_to_run</td><td style="vertical-align:top;">:</td><td><div><table><tr><td><div>^\\w+\\.py$</div></td></tr><tr><td><div>^default/\\w+\\.py$</div></td></tr><tr><td><div>^default/dashboard/\\w+\\.py$</div></td></tr></table></div></td></tr><tr><td style="font-weight:bold;vertical-align:top;">postprocessing</td><td style="vertical-align:top;">:</td><td><div><table></table></div></td></tr><tr><td style="font-weight:bold;vertical-align:top;">session_client</td><td style="vertical-align:top;">:</td><td><div>127.0.0.1</div></td></tr><tr><td style="font-weight:bold;vertical-align:top;">session_cookie_compression_level</td><td style="vertical-align:top;">:</td><td><div>None</div></td></tr><tr><td style="font-weight:bold;vertical-align:top;">session_cookie_expires</td><td style="vertical-align:top;">:</td><td><div>None</div></td></tr><tr><td style="font-weight:bold;vertical-align:top;">session_cookie_key</td><td style="vertical-align:top;">:</td><td><div>None</div></td></tr><tr><td style="font-weight:bold;vertical-align:top;">session_data_name</td><td style="vertical-align:top;">:</td><td><div>session_data_shoebox</div></td></tr><tr><td style="font-weight:bold;vertical-align:top;">session_file</td><td style="vertical-align:top;">:</td><td><div>&lt;open file &#x27;E:\\\\web2py\\\\applications\\\\shoebox\\\\sessions\\\\1f7\\\\11a\\\\127.0.0.1-93826c5d-1ad7-484d-b1c3-00b6caa53dc3&#x27;, mode &#x27;rb+&#x27; at 0x02D325A0&gt;</div></td></tr><tr><td style="font-weight:bold;vertical-align:top;">session_filename</td><td style="vertical-align:top;">:</td><td><div>E:\\web2py\\applications\\shoebox\\sessions\\127.0.0.1-93826c5d-1ad7-484d-b1c3-00b6caa53dc3</div></td></tr><tr><td style="font-weight:bold;vertical-align:top;">session_hash</td><td style="vertical-align:top;">:</td><td><div>fbca28e7a4a85fb90350e1dca94b5931</div></td></tr><tr><td style="font-weight:bold;vertical-align:top;">session_id</td><td style="vertical-align:top;">:</td><td><div>127.0.0.1-93826c5d-1ad7-484d-b1c3-00b6caa53dc3</div></td></tr><tr><td style="font-weight:bold;vertical-align:top;">session_id_name</td><td style="vertical-align:top;">:</td><td><div>session_id_shoebox</div></td></tr><tr><td style="font-weight:bold;vertical-align:top;">session_locked</td><td style="vertical-align:top;">:</td><td><div>True</div></td></tr><tr><td style="font-weight:bold;vertical-align:top;">session_masterapp</td><td style="vertical-align:top;">:</td><td><div>shoebox</div></td></tr><tr><td style="font-weight:bold;vertical-align:top;">session_new</td><td style="vertical-align:top;">:</td><td><div>False</div></td></tr><tr><td style="font-weight:bold;vertical-align:top;">session_storage_type</td><td style="vertical-align:top;">:</td><td><div>file</div></td></tr><tr><td style="font-weight:bold;vertical-align:top;">status</td><td style="vertical-align:top;">:</td><td><div>200</div></td></tr><tr><td style="font-weight:bold;vertical-align:top;">view</td><td style="vertical-align:top;">:</td><td><div>default/dashboard.html</div></td></tr></table></div>'
tRp98
sS'locals'
p99
(dp100
S'Service'
p101
S"<class 'gluon.tools.Service'>"
p102
sS'OBJECT'
p103
S"<class 'gluon.html.OBJECT'>"
p104
sS'SQLDB'
p105
S"<class 'gluon.dal.DAL'>"
p106
sg91
S"<Storage {'last_query': 'db.auth_user.id>0', '_u...87ab4', '75649537-8b95-4adc-a1e8-ce6a8cb6bd94']}>"
p107
sS'LINK'
p108
S"<class 'gluon.html.LINK'>"
p109
sS'BR'
p110
S"<class 'gluon.html.BR'>"
p111
sS'local_import'
p112
S'<function <lambda>>'
p113
sS'OPTGROUP'
p114
S"<class 'gluon.html.OPTGROUP'>"
p115
sS'LI'
p116
S"<class 'gluon.html.LI'>"
p117
sS'PRE'
p118
S"<class 'gluon.html.PRE'>"
p119
sS'IS_INT_IN_RANGE'
p120
S"<class 'gluon.validators.IS_INT_IN_RANGE'>"
p121
sS'IS_LOWER'
p122
S"<class 'gluon.validators.IS_LOWER'>"
p123
sS'IS_STRONG'
p124
S"<class 'gluon.validators.IS_STRONG'>"
p125
sS'cache'
p126
S'<gluon.cache.Cache object>'
p127
sS'IS_IN_DB'
p128
S"<class 'gluon.validators.IS_IN_DB'>"
p129
sS'TAG'
p130
S'<gluon.html.__TAG__ object>'
p131
sS'SQLField'
p132
S"<class 'gluon.dal.Field'>"
p133
sS'mail'
p134
S'<gluon.tools.Mail object>'
p135
sS'BODY'
p136
S"<class 'gluon.html.BODY'>"
p137
sS'IS_DATE_IN_RANGE'
p138
S"<class 'gluon.validators.IS_DATE_IN_RANGE'>"
p139
sS'TH'
p140
S"<class 'gluon.html.TH'>"
p141
sS'articles'
p142
S'<function articles>'
p143
sS'URL'
p144
S'<function URL>'
p145
sS'__file__'
p146
S"r'E:\\web2py\\applications\\shoebox\\controllers/default.py'"
p147
sS'db'
p148
S'<DAL uri="sqlite://storage.sqlite">'
p149
sS'auth'
p150
S'<gluon.tools.Auth object>'
p151
sS'P'
S"<class 'gluon.html.P'>"
p152
sS'TFOOT'
p153
S"<class 'gluon.html.TFOOT'>"
p154
sS'XHTML'
p155
S"<class 'gluon.html.XHTML'>"
p156
sS'ON'
p157
S'True'
p158
sS'OL'
p159
S"<class 'gluon.html.OL'>"
p160
sS'TEXTAREA'
p161
S"<class 'gluon.html.TEXTAREA'>"
p162
sS'MENU'
p163
S"<class 'gluon.html.MENU'>"
p164
sS'article_CLICK'
p165
S'<function article_CLICK>'
p166
sS'LOAD'
p167
S'<function LOAD>'
p168
sS'CODE'
p169
S"<class 'gluon.html.CODE'>"
p170
sS'HTTP'
p171
S"<class 'gluon.http.HTTP'>"
p172
sS'HR'
p173
S"<class 'gluon.html.HR'>"
p174
sS'IS_DATETIME'
p175
S"<class 'gluon.validators.IS_DATETIME'>"
p176
sS'HEAD'
p177
S"<class 'gluon.html.HEAD'>"
p178
sS'LABEL'
p179
S"<class 'gluon.html.LABEL'>"
p180
sS'CLEANUP'
p181
S"<class 'gluon.validators.CLEANUP'>"
p182
sS'plugins'
p183
S'<gluon.tools.PluginManager object>'
p184
sS'SELECT'
p185
S"<class 'gluon.html.SELECT'>"
p186
sS'index'
p187
S'<function index>'
p188
sS'use_janrain'
p189
S'<function use_janrain>'
p190
sS'CENTER'
p191
S"<class 'gluon.html.CENTER'>"
p192
sS'Auth'
p193
S"<class 'gluon.tools.Auth'>"
p194
sS'__builtins__'
p195
S"{'ArithmeticError': <type 'exceptions.ArithmeticError'>, 'AssertionError': <type 'exceptions.AssertionError'>, 'AttributeError': <type 'exceptions.AttributeError'>, 'BaseException': <type 'exceptions.BaseException'>, 'BufferError': <type 'exceptions.BufferError'>, 'BytesWarning': <type 'exceptions.BytesWarning'>, 'DeprecationWarning': <type 'exceptions.DeprecationWarning'>, 'EOFError': <type 'exceptions.EOFError'>, 'Ellipsis': Ellipsis, 'EnvironmentError': <type 'exceptions.EnvironmentError'>, ...}"
p196
sS'HTML'
p197
S"<class 'gluon.html.HTML'>"
p198
sS'SQLFORM'
p199
S"<class 'gluon.sqlhtml.SQLFORM'>"
p200
sS'EM'
p201
S"<class 'gluon.html.EM'>"
p202
sS'redirect'
p203
S'<function redirect>'
p204
sS'FIELDSET'
p205
S"<class 'gluon.html.FIELDSET'>"
p206
sS'IS_EQUAL_TO'
p207
S"<class 'gluon.validators.IS_EQUAL_TO'>"
p208
sS'embed64'
p209
S'<function embed64>'
p210
sS'IS_LIST_OF'
p211
S"<class 'gluon.validators.IS_LIST_OF'>"
p212
sS'DEBUG'
p213
g158
sS'__name__'
p214
S"'__restricted__'"
p215
sS'EMBED'
p216
S"<class 'gluon.html.EMBED'>"
p217
sS'FORM'
p218
S"<class 'gluon.html.FORM'>"
p219
sS'H2'
p220
S"<class 'gluon.html.H2'>"
p221
sS'H3'
p222
S"<class 'gluon.html.H3'>"
p223
sS'BUTTON'
p224
S"<class 'gluon.html.BUTTON'>"
p225
sS'H1'
p226
S"<class 'gluon.html.H1'>"
p227
sS'H6'
p228
S"<class 'gluon.html.H6'>"
p229
sS'H4'
p230
S"<class 'gluon.html.H4'>"
p231
sS'H5'
p232
S"<class 'gluon.html.H5'>"
p233
sS'UL'
p234
S"<class 'gluon.html.UL'>"
p235
sS'IS_UPPER'
p236
S"<class 'gluon.validators.IS_UPPER'>"
p237
sS'xmlescape'
p238
S'<function xmlescape>'
p239
sS'IS_TIME'
p240
S"<class 'gluon.validators.IS_TIME'>"
p241
sS'OPTION'
p242
S"<class 'gluon.html.OPTION'>"
p243
sS'TITLE'
p244
S"<class 'gluon.html.TITLE'>"
p245
sS'CRYPT'
p246
S"<class 'gluon.validators.CRYPT'>"
p247
sS'IS_EMPTY_OR'
p248
S"<class 'gluon.validators.IS_EMPTY_OR'>"
p249
sS'MARKMIN'
p250
S"<class 'gluon.html.MARKMIN'>"
p251
sS'authors_CLICK'
p252
S'<function authors_CLICK>'
p253
sS'INPUT'
p254
S"<class 'gluon.html.INPUT'>"
p255
sS'STRONG'
p256
S"<class 'gluon.html.STRONG'>"
p257
sS'COL'
p258
S"<class 'gluon.html.COL'>"
p259
sS'service'
p260
S'<gluon.tools.Service object>'
p261
sS'SCRIPT'
p262
S"<class 'gluon.html.SCRIPT'>"
p263
sS'TABLE'
p264
S"<class 'gluon.html.TABLE'>"
p265
sS'IS_IPV4'
p266
S"<class 'gluon.validators.IS_IPV4'>"
p267
sS'IS_LENGTH'
p268
S"<class 'gluon.validators.IS_LENGTH'>"
p269
sS'IS_IPV6'
p270
S"<class 'gluon.validators.IS_IPV6'>"
p271
sS'XML'
p272
S"<class 'gluon.html.XML'>"
p273
sS'B'
S"<class 'gluon.html.B'>"
p274
sS'IMG'
p275
S"<class 'gluon.html.IMG'>"
p276
sS'SQLTABLE'
p277
S"<class 'gluon.sqlhtml.SQLTABLE'>"
p278
sS'IS_MATCH'
p279
S"<class 'gluon.validators.IS_MATCH'>"
p280
sS'IS_ALPHANUMERIC'
p281
S"<class 'gluon.validators.IS_ALPHANUMERIC'>"
p282
sS'authors'
p283
S'<function authors>'
p284
sS'SPAN'
p285
S"<class 'gluon.html.SPAN'>"
p286
sS'IS_JSON'
p287
S"<class 'gluon.validators.IS_JSON'>"
p288
sS'IS_IPADDRESS'
p289
S"<class 'gluon.validators.IS_IPADDRESS'>"
p290
sS'IS_SLUG'
p291
S"<class 'gluon.validators.IS_SLUG'>"
p292
sS'BEAUTIFY'
p293
S"<class 'gluon.html.BEAUTIFY'>"
p294
sS'META'
p295
S"<class 'gluon.html.META'>"
p296
sS'IS_DATE'
p297
S"<class 'gluon.validators.IS_DATE'>"
p298
sS'IS_EMAIL'
p299
S"<class 'gluon.validators.IS_EMAIL'>"
p300
sS'IS_NOT_EMPTY'
p301
S"<class 'gluon.validators.IS_NOT_EMPTY'>"
p302
sg56
S"<Storage {'_vars': None, 'function': 'dashboard'...'folder': 'E:\\\\web2py\\\\applications\\\\shoebox\\\\'}>"
p303
sS'TBODY'
p304
S"<class 'gluon.html.TBODY'>"
p305
sS'CAT'
p306
S"<class 'gluon.html.CAT'>"
p307
sS'Field'
p308
S"<class 'gluon.dal.Field'>"
p309
sS'IS_LIST_OF_EMAILS'
p310
S"<class 'gluon.validators.IS_LIST_OF_EMAILS'>"
p311
sS'DIV'
p312
S"<class 'gluon.html.DIV'>"
p313
sS'LEGEND'
p314
S"<class 'gluon.html.LEGEND'>"
p315
sS'COLGROUP'
p316
S"<class 'gluon.html.COLGROUP'>"
p317
sS'DAL'
p318
S"<class 'gluon.dal.DAL'>"
p319
sS'ASSIGNJS'
p320
S'<function ASSIGNJS>'
p321
sS'TR'
p322
S"<class 'gluon.html.TR'>"
p323
sS'__package__'
p324
S'None'
p325
sS'IFRAME'
p326
S"<class 'gluon.html.IFRAME'>"
p327
sS'TD'
p328
S"<class 'gluon.html.TD'>"
p329
sS'PluginManager'
p330
S"<class 'gluon.tools.PluginManager'>"
p331
sS'IS_URL'
p332
S"<class 'gluon.validators.IS_URL'>"
p333
sS'A'
S"<class 'gluon.html.A'>"
p334
sS'STYLE'
p335
S"<class 'gluon.html.STYLE'>"
p336
sS'IS_DATETIME_IN_RANGE'
p337
S"<class 'gluon.validators.IS_DATETIME_IN_RANGE'>"
p338
sS'IS_IMAGE'
p339
S"<class 'gluon.validators.IS_IMAGE'>"
p340
sS'I'
S"<class 'gluon.html.I'>"
p341
sS'IS_NOT_IN_DB'
p342
S"<class 'gluon.validators.IS_NOT_IN_DB'>"
p343
sg97
S"<Storage {'body': <cStringIO.StringO object at 0...t 0x08635F70>, 'view': 'default/dashboard.html'}>"
p344
sS'THEAD'
p345
S"<class 'gluon.html.THEAD'>"
p346
sS'ANY_OF'
p347
S"<class 'gluon.validators.ANY_OF'>"
p348
sS'IS_NULL_OR'
p349
S"<class 'gluon.validators.IS_EMPTY_OR'>"
p350
sS'IS_FLOAT_IN_RANGE'
p351
S"<class 'gluon.validators.IS_FLOAT_IN_RANGE'>"
p352
sS'IS_EXPR'
p353
S"<class 'gluon.validators.IS_EXPR'>"
p354
sS'IS_IN_SET'
p355
S"<class 'gluon.validators.IS_IN_SET'>"
p356
sS'IS_UPLOAD_FILENAME'
p357
S"<class 'gluon.validators.IS_UPLOAD_FILENAME'>"
p358
sS'IS_DECIMAL_IN_RANGE'
p359
S"<class 'gluon.validators.IS_DECIMAL_IN_RANGE'>"
p360
sS'TT'
p361
S"<class 'gluon.html.TT'>"
p362
sS'T'
S'<gluon.languages.translator object>'
p363
sssS'traceback'
p364
S'Traceback (most recent call last):\n  File "gluon/restricted.py", line 224, in restricted\n  File "E:\\web2py\\applications\\shoebox\\controllers/default.py", line 47, in <module>\n    @auth.requires(auth_user.is_Administrator==True)\nNameError: name \'auth_user\' is not defined\n'
p365
s.